
02012026_SBC_LCD01-F411.elf:     file format elf32-littlearm

Sections:
Idx Name          Size      VMA       LMA       File off  Algn
  0 .isr_vector   00000198  08000000  08000000  00001000  2**0
                  CONTENTS, ALLOC, LOAD, READONLY, DATA
  1 .text         0000194c  08000198  08000198  00001198  2**2
                  CONTENTS, ALLOC, LOAD, READONLY, CODE
  2 .rodata       00000448  08001ae4  08001ae4  00002ae4  2**2
                  CONTENTS, ALLOC, LOAD, READONLY, DATA
  3 .ARM.extab    00000000  08001f2c  08001f2c  00003034  2**0
                  CONTENTS, READONLY
  4 .ARM          00000000  08001f2c  08001f2c  00003034  2**0
                  CONTENTS, READONLY
  5 .preinit_array 00000000  08001f2c  08001f2c  00003034  2**0
                  CONTENTS, ALLOC, LOAD, DATA
  6 .init_array   00000004  08001f2c  08001f2c  00002f2c  2**2
                  CONTENTS, ALLOC, LOAD, READONLY, DATA
  7 .fini_array   00000004  08001f30  08001f30  00002f30  2**2
                  CONTENTS, ALLOC, LOAD, READONLY, DATA
  8 .data         00000034  20000000  08001f34  00003000  2**2
                  CONTENTS, ALLOC, LOAD, DATA
  9 .bss          00000464  20000034  08001f68  00003034  2**2
                  ALLOC
 10 ._user_heap_stack 00000600  20000498  08001f68  00003498  2**0
                  ALLOC
 11 .ARM.attributes 00000030  00000000  00000000  00003034  2**0
                  CONTENTS, READONLY
 12 .debug_info   000029e6  00000000  00000000  00003064  2**0
                  CONTENTS, READONLY, DEBUGGING, OCTETS
 13 .debug_abbrev 00000b1a  00000000  00000000  00005a4a  2**0
                  CONTENTS, READONLY, DEBUGGING, OCTETS
 14 .debug_aranges 000002b8  00000000  00000000  00006568  2**3
                  CONTENTS, READONLY, DEBUGGING, OCTETS
 15 .debug_rnglists 0000020b  00000000  00000000  00006820  2**0
                  CONTENTS, READONLY, DEBUGGING, OCTETS
 16 .debug_macro  0000f704  00000000  00000000  00006a2b  2**0
                  CONTENTS, READONLY, DEBUGGING, OCTETS
 17 .debug_line   000041ab  00000000  00000000  0001612f  2**0
                  CONTENTS, READONLY, DEBUGGING, OCTETS
 18 .debug_str    00054fc3  00000000  00000000  0001a2da  2**0
                  CONTENTS, READONLY, DEBUGGING, OCTETS
 19 .comment      00000043  00000000  00000000  0006f29d  2**0
                  CONTENTS, READONLY
 20 .debug_frame  00000968  00000000  00000000  0006f2e0  2**2
                  CONTENTS, READONLY, DEBUGGING, OCTETS
 21 .debug_line_str 0000006e  00000000  00000000  0006fc48  2**0
                  CONTENTS, READONLY, DEBUGGING, OCTETS

Disassembly of section .text:

08000198 <__do_global_dtors_aux>:
 8000198:	b510      	push	{r4, lr}
 800019a:	4c05      	ldr	r4, [pc, #20]	@ (80001b0 <__do_global_dtors_aux+0x18>)
 800019c:	7823      	ldrb	r3, [r4, #0]
 800019e:	b933      	cbnz	r3, 80001ae <__do_global_dtors_aux+0x16>
 80001a0:	4b04      	ldr	r3, [pc, #16]	@ (80001b4 <__do_global_dtors_aux+0x1c>)
 80001a2:	b113      	cbz	r3, 80001aa <__do_global_dtors_aux+0x12>
 80001a4:	4804      	ldr	r0, [pc, #16]	@ (80001b8 <__do_global_dtors_aux+0x20>)
 80001a6:	f3af 8000 	nop.w
 80001aa:	2301      	movs	r3, #1
 80001ac:	7023      	strb	r3, [r4, #0]
 80001ae:	bd10      	pop	{r4, pc}
 80001b0:	20000034 	.word	0x20000034
 80001b4:	00000000 	.word	0x00000000
 80001b8:	08001acc 	.word	0x08001acc

080001bc <frame_dummy>:
 80001bc:	b508      	push	{r3, lr}
 80001be:	4b03      	ldr	r3, [pc, #12]	@ (80001cc <frame_dummy+0x10>)
 80001c0:	b11b      	cbz	r3, 80001ca <frame_dummy+0xe>
 80001c2:	4903      	ldr	r1, [pc, #12]	@ (80001d0 <frame_dummy+0x14>)
 80001c4:	4803      	ldr	r0, [pc, #12]	@ (80001d4 <frame_dummy+0x18>)
 80001c6:	f3af 8000 	nop.w
 80001ca:	bd08      	pop	{r3, pc}
 80001cc:	00000000 	.word	0x00000000
 80001d0:	20000038 	.word	0x20000038
 80001d4:	08001acc 	.word	0x08001acc

080001d8 <__NVIC_EnableIRQ>:
  \details Enables a device specific interrupt in the NVIC interrupt controller.
  \param [in]      IRQn  Device specific interrupt number.
  \note    IRQn must not be negative.
 */
__STATIC_INLINE void __NVIC_EnableIRQ(IRQn_Type IRQn)
{
 80001d8:	b480      	push	{r7}
 80001da:	b083      	sub	sp, #12
 80001dc:	af00      	add	r7, sp, #0
 80001de:	4603      	mov	r3, r0
 80001e0:	71fb      	strb	r3, [r7, #7]
  if ((int32_t)(IRQn) >= 0)
 80001e2:	f997 3007 	ldrsb.w	r3, [r7, #7]
 80001e6:	2b00      	cmp	r3, #0
 80001e8:	db0b      	blt.n	8000202 <__NVIC_EnableIRQ+0x2a>
  {
    __COMPILER_BARRIER();
    NVIC->ISER[(((uint32_t)IRQn) >> 5UL)] = (uint32_t)(1UL << (((uint32_t)IRQn) & 0x1FUL));
 80001ea:	79fb      	ldrb	r3, [r7, #7]
 80001ec:	f003 021f 	and.w	r2, r3, #31
 80001f0:	4907      	ldr	r1, [pc, #28]	@ (8000210 <__NVIC_EnableIRQ+0x38>)
 80001f2:	f997 3007 	ldrsb.w	r3, [r7, #7]
 80001f6:	095b      	lsrs	r3, r3, #5
 80001f8:	2001      	movs	r0, #1
 80001fa:	fa00 f202 	lsl.w	r2, r0, r2
 80001fe:	f841 2023 	str.w	r2, [r1, r3, lsl #2]
    __COMPILER_BARRIER();
  }
}
 8000202:	bf00      	nop
 8000204:	370c      	adds	r7, #12
 8000206:	46bd      	mov	sp, r7
 8000208:	f85d 7b04 	ldr.w	r7, [sp], #4
 800020c:	4770      	bx	lr
 800020e:	bf00      	nop
 8000210:	e000e100 	.word	0xe000e100

08000214 <exti_init>:

#define GPIOCEN		    (1U<<2)
#define SYSCFGEN		(1U<<14)

void exti_init(void)
{
 8000214:	b580      	push	{r7, lr}
 8000216:	af00      	add	r7, sp, #0
  \details Disables IRQ interrupts by setting special-purpose register PRIMASK.
           Can only be executed in Privileged modes.
 */
__STATIC_FORCEINLINE void __disable_irq(void)
{
  __ASM volatile ("cpsid i" : : : "memory");
 8000218:	b672      	cpsid	i
}
 800021a:	bf00      	nop
	/*Disable global interrupts*/
	__disable_irq();

	/*Enable clock access to SYSCFG*/
	RCC->APB2ENR |=SYSCFGEN;
 800021c:	4b0f      	ldr	r3, [pc, #60]	@ (800025c <exti_init+0x48>)
 800021e:	6c5b      	ldr	r3, [r3, #68]	@ 0x44
 8000220:	4a0e      	ldr	r2, [pc, #56]	@ (800025c <exti_init+0x48>)
 8000222:	f443 4380 	orr.w	r3, r3, #16384	@ 0x4000
 8000226:	6453      	str	r3, [r2, #68]	@ 0x44

	/*Select PORTC for EXTI13*/
	//Kollege GPT sagt das brauche ich nicht
	//SYSCFG->EXTICR[3] |=(1U<<5);

	DMA2_Stream3->CR |= (1U << 4); // TCIE
 8000228:	4b0d      	ldr	r3, [pc, #52]	@ (8000260 <exti_init+0x4c>)
 800022a:	681b      	ldr	r3, [r3, #0]
 800022c:	4a0c      	ldr	r2, [pc, #48]	@ (8000260 <exti_init+0x4c>)
 800022e:	f043 0310 	orr.w	r3, r3, #16
 8000232:	6013      	str	r3, [r2, #0]
	/*Unmask EXTI13*/
	EXTI->IMR |=(1U<<13);
 8000234:	4b0b      	ldr	r3, [pc, #44]	@ (8000264 <exti_init+0x50>)
 8000236:	681b      	ldr	r3, [r3, #0]
 8000238:	4a0a      	ldr	r2, [pc, #40]	@ (8000264 <exti_init+0x50>)
 800023a:	f443 5300 	orr.w	r3, r3, #8192	@ 0x2000
 800023e:	6013      	str	r3, [r2, #0]

	/*Select falling edge trigger*/
	EXTI->FTSR |=(1U<<13);
 8000240:	4b08      	ldr	r3, [pc, #32]	@ (8000264 <exti_init+0x50>)
 8000242:	68db      	ldr	r3, [r3, #12]
 8000244:	4a07      	ldr	r2, [pc, #28]	@ (8000264 <exti_init+0x50>)
 8000246:	f443 5300 	orr.w	r3, r3, #8192	@ 0x2000
 800024a:	60d3      	str	r3, [r2, #12]

	/*Enable DMA Stream in NVIC*/
	NVIC_EnableIRQ(DMA2_Stream3_IRQn);
 800024c:	203b      	movs	r0, #59	@ 0x3b
 800024e:	f7ff ffc3 	bl	80001d8 <__NVIC_EnableIRQ>
  __ASM volatile ("cpsie i" : : : "memory");
 8000252:	b662      	cpsie	i
}
 8000254:	bf00      	nop

	/*Enable global interrupts*/
	__enable_irq();


}
 8000256:	bf00      	nop
 8000258:	bd80      	pop	{r7, pc}
 800025a:	bf00      	nop
 800025c:	40023800 	.word	0x40023800
 8000260:	40026458 	.word	0x40026458
 8000264:	40013c00 	.word	0x40013c00

08000268 <DMA2_Stream3_IRQHandler>:

void DMA2_Stream3_IRQHandler(void)
{
 8000268:	b480      	push	{r7}
 800026a:	af00      	add	r7, sp, #0
    // Clear IRQ
	DMA2->LIFCR |= (1U << 27);
 800026c:	4b05      	ldr	r3, [pc, #20]	@ (8000284 <DMA2_Stream3_IRQHandler+0x1c>)
 800026e:	689b      	ldr	r3, [r3, #8]
 8000270:	4a04      	ldr	r2, [pc, #16]	@ (8000284 <DMA2_Stream3_IRQHandler+0x1c>)
 8000272:	f043 6300 	orr.w	r3, r3, #134217728	@ 0x8000000
 8000276:	6093      	str	r3, [r2, #8]
}
 8000278:	bf00      	nop
 800027a:	46bd      	mov	sp, r7
 800027c:	f85d 7b04 	ldr.w	r7, [sp], #4
 8000280:	4770      	bx	lr
 8000282:	bf00      	nop
 8000284:	40026400 	.word	0x40026400

08000288 <main>:





int main(void){
 8000288:	b580      	push	{r7, lr}
 800028a:	b084      	sub	sp, #16
 800028c:	af02      	add	r7, sp, #8
	sbc_lcd01_init();
 800028e:	f000 fe03 	bl	8000e98 <sbc_lcd01_init>
	debugSineCosine();
 8000292:	f000 fd53 	bl	8000d3c <debugSineCosine>
	systick_msec_delay(2500);
 8000296:	f640 10c4 	movw	r0, #2500	@ 0x9c4
 800029a:	f001 fb5f 	bl	800195c <systick_msec_delay>
	fullScreenColor(COLOR16_WHITE);
 800029e:	f64f 70ff 	movw	r0, #65535	@ 0xffff
 80002a2:	f000 fe73 	bl	8000f8c <fullScreenColor>
	rectangle_empty(0,0,230,230,10,COLOR16_BLUE);
 80002a6:	23fd      	movs	r3, #253	@ 0xfd
 80002a8:	9301      	str	r3, [sp, #4]
 80002aa:	230a      	movs	r3, #10
 80002ac:	9300      	str	r3, [sp, #0]
 80002ae:	23e6      	movs	r3, #230	@ 0xe6
 80002b0:	22e6      	movs	r2, #230	@ 0xe6
 80002b2:	2100      	movs	r1, #0
 80002b4:	2000      	movs	r0, #0
 80002b6:	f000 f999 	bl	80005ec <rectangle_empty>
	graphicsInit(COLOR16_GREEN, COLOR16_BLACK, 6);
 80002ba:	2206      	movs	r2, #6
 80002bc:	2100      	movs	r1, #0
 80002be:	f44f 50f8 	mov.w	r0, #7936	@ 0x1f00
 80002c2:	f000 f847 	bl	8000354 <graphicsInit>
	digitLCDInit(25,40,40,50,19,5);
 80002c6:	2305      	movs	r3, #5
 80002c8:	9301      	str	r3, [sp, #4]
 80002ca:	2313      	movs	r3, #19
 80002cc:	9300      	str	r3, [sp, #0]
 80002ce:	2332      	movs	r3, #50	@ 0x32
 80002d0:	2228      	movs	r2, #40	@ 0x28
 80002d2:	2128      	movs	r1, #40	@ 0x28
 80002d4:	2019      	movs	r0, #25
 80002d6:	f000 f857 	bl	8000388 <digitLCDInit>
	uint16_t number = 0;
 80002da:	2300      	movs	r3, #0
 80002dc:	80fb      	strh	r3, [r7, #6]
	int16_t pos=0;
 80002de:	2300      	movs	r3, #0
 80002e0:	80bb      	strh	r3, [r7, #4]

	while(1){
		systick_msec_sleep(50);
 80002e2:	2032      	movs	r0, #50	@ 0x32
 80002e4:	f001 fb6a 	bl	80019bc <systick_msec_sleep>
		digitLCDUpdate(number);
 80002e8:	88fb      	ldrh	r3, [r7, #6]
 80002ea:	4618      	mov	r0, r3
 80002ec:	f000 f8cc 	bl	8000488 <digitLCDUpdate>
		pos =(pos+1)%450;
 80002f0:	f9b7 3004 	ldrsh.w	r3, [r7, #4]
 80002f4:	3301      	adds	r3, #1
 80002f6:	4a09      	ldr	r2, [pc, #36]	@ (800031c <main+0x94>)
 80002f8:	fb82 1203 	smull	r1, r2, r2, r3
 80002fc:	441a      	add	r2, r3
 80002fe:	1211      	asrs	r1, r2, #8
 8000300:	17da      	asrs	r2, r3, #31
 8000302:	1a8a      	subs	r2, r1, r2
 8000304:	f44f 71e1 	mov.w	r1, #450	@ 0x1c2
 8000308:	fb01 f202 	mul.w	r2, r1, r2
 800030c:	1a9a      	subs	r2, r3, r2
 800030e:	4613      	mov	r3, r2
 8000310:	80bb      	strh	r3, [r7, #4]
		number++;
 8000312:	88fb      	ldrh	r3, [r7, #6]
 8000314:	3301      	adds	r3, #1
 8000316:	80fb      	strh	r3, [r7, #6]
		systick_msec_sleep(50);
 8000318:	bf00      	nop
 800031a:	e7e2      	b.n	80002e2 <main+0x5a>
 800031c:	91a2b3c5 	.word	0x91a2b3c5

08000320 <textInit>:

static textOptions TEXT_OPT ={1,COLOR16_BLACK,COLOR16_WHITE};
static graphicsOptions GRAPH_OPT ={COLOR16_BLACK,COLOR16_WHITE};
static LCDOptions LCD_OPT ={COLOR16_BLACK,COLOR16_WHITE,0,0,8,70,100,{'8','8','8','8','8'},{'8','8','8','8','8'},5}; //depends on MAXDIGIT!

void textInit(bool doubleSize, uint16_t color, uint16_t backgroundColor){
 8000320:	b480      	push	{r7}
 8000322:	b083      	sub	sp, #12
 8000324:	af00      	add	r7, sp, #0
 8000326:	4603      	mov	r3, r0
 8000328:	71fb      	strb	r3, [r7, #7]
 800032a:	460b      	mov	r3, r1
 800032c:	80bb      	strh	r3, [r7, #4]
 800032e:	4613      	mov	r3, r2
 8000330:	807b      	strh	r3, [r7, #2]
	TEXT_OPT.doubleSized = doubleSize;
 8000332:	4a07      	ldr	r2, [pc, #28]	@ (8000350 <textInit+0x30>)
 8000334:	79fb      	ldrb	r3, [r7, #7]
 8000336:	7013      	strb	r3, [r2, #0]
	TEXT_OPT.color = color;
 8000338:	4a05      	ldr	r2, [pc, #20]	@ (8000350 <textInit+0x30>)
 800033a:	88bb      	ldrh	r3, [r7, #4]
 800033c:	8053      	strh	r3, [r2, #2]
	TEXT_OPT.bgColor = backgroundColor;
 800033e:	4a04      	ldr	r2, [pc, #16]	@ (8000350 <textInit+0x30>)
 8000340:	887b      	ldrh	r3, [r7, #2]
 8000342:	8093      	strh	r3, [r2, #4]
}
 8000344:	bf00      	nop
 8000346:	370c      	adds	r7, #12
 8000348:	46bd      	mov	sp, r7
 800034a:	f85d 7b04 	ldr.w	r7, [sp], #4
 800034e:	4770      	bx	lr
 8000350:	20000008 	.word	0x20000008

08000354 <graphicsInit>:

void graphicsInit( uint16_t color, uint16_t backgroundColor, uint8_t thickness){
 8000354:	b480      	push	{r7}
 8000356:	b083      	sub	sp, #12
 8000358:	af00      	add	r7, sp, #0
 800035a:	4603      	mov	r3, r0
 800035c:	80fb      	strh	r3, [r7, #6]
 800035e:	460b      	mov	r3, r1
 8000360:	80bb      	strh	r3, [r7, #4]
 8000362:	4613      	mov	r3, r2
 8000364:	70fb      	strb	r3, [r7, #3]
	//sets all graphics relecant options
	GRAPH_OPT.color = color;
 8000366:	4a07      	ldr	r2, [pc, #28]	@ (8000384 <graphicsInit+0x30>)
 8000368:	88fb      	ldrh	r3, [r7, #6]
 800036a:	8013      	strh	r3, [r2, #0]
	GRAPH_OPT.bgColor = backgroundColor;
 800036c:	4a05      	ldr	r2, [pc, #20]	@ (8000384 <graphicsInit+0x30>)
 800036e:	88bb      	ldrh	r3, [r7, #4]
 8000370:	8053      	strh	r3, [r2, #2]
	GRAPH_OPT.thickness = thickness;
 8000372:	4a04      	ldr	r2, [pc, #16]	@ (8000384 <graphicsInit+0x30>)
 8000374:	78fb      	ldrb	r3, [r7, #3]
 8000376:	7113      	strb	r3, [r2, #4]

}
 8000378:	bf00      	nop
 800037a:	370c      	adds	r7, #12
 800037c:	46bd      	mov	sp, r7
 800037e:	f85d 7b04 	ldr.w	r7, [sp], #4
 8000382:	4770      	bx	lr
 8000384:	20000010 	.word	0x20000010

08000388 <digitLCDInit>:

void digitLCDInit(uint16_t x, uint16_t y, uint8_t xOffset, uint8_t height,uint8_t width, uint8_t digitNo){
 8000388:	b590      	push	{r4, r7, lr}
 800038a:	b087      	sub	sp, #28
 800038c:	af02      	add	r7, sp, #8
 800038e:	4604      	mov	r4, r0
 8000390:	4608      	mov	r0, r1
 8000392:	4611      	mov	r1, r2
 8000394:	461a      	mov	r2, r3
 8000396:	4623      	mov	r3, r4
 8000398:	80fb      	strh	r3, [r7, #6]
 800039a:	4603      	mov	r3, r0
 800039c:	80bb      	strh	r3, [r7, #4]
 800039e:	460b      	mov	r3, r1
 80003a0:	70fb      	strb	r3, [r7, #3]
 80003a2:	4613      	mov	r3, r2
 80003a4:	70bb      	strb	r3, [r7, #2]
	//initialize LCD display of digitNo numbers on screen, use graphicsInit first to set basic parameters
	LCD_OPT.color = GRAPH_OPT.color;
 80003a6:	4b36      	ldr	r3, [pc, #216]	@ (8000480 <digitLCDInit+0xf8>)
 80003a8:	881a      	ldrh	r2, [r3, #0]
 80003aa:	4b36      	ldr	r3, [pc, #216]	@ (8000484 <digitLCDInit+0xfc>)
 80003ac:	801a      	strh	r2, [r3, #0]
	LCD_OPT.bgColor = GRAPH_OPT.bgColor;
 80003ae:	4b34      	ldr	r3, [pc, #208]	@ (8000480 <digitLCDInit+0xf8>)
 80003b0:	885a      	ldrh	r2, [r3, #2]
 80003b2:	4b34      	ldr	r3, [pc, #208]	@ (8000484 <digitLCDInit+0xfc>)
 80003b4:	805a      	strh	r2, [r3, #2]
	LCD_OPT.x =x;
 80003b6:	4a33      	ldr	r2, [pc, #204]	@ (8000484 <digitLCDInit+0xfc>)
 80003b8:	88fb      	ldrh	r3, [r7, #6]
 80003ba:	8093      	strh	r3, [r2, #4]
	LCD_OPT.y =y;
 80003bc:	4a31      	ldr	r2, [pc, #196]	@ (8000484 <digitLCDInit+0xfc>)
 80003be:	88bb      	ldrh	r3, [r7, #4]
 80003c0:	80d3      	strh	r3, [r2, #6]
	LCD_OPT.thickness = GRAPH_OPT.thickness;
 80003c2:	4b2f      	ldr	r3, [pc, #188]	@ (8000480 <digitLCDInit+0xf8>)
 80003c4:	791a      	ldrb	r2, [r3, #4]
 80003c6:	4b2f      	ldr	r3, [pc, #188]	@ (8000484 <digitLCDInit+0xfc>)
 80003c8:	721a      	strb	r2, [r3, #8]
	LCD_OPT.xOffset = xOffset;
 80003ca:	4a2e      	ldr	r2, [pc, #184]	@ (8000484 <digitLCDInit+0xfc>)
 80003cc:	78fb      	ldrb	r3, [r7, #3]
 80003ce:	7253      	strb	r3, [r2, #9]
	LCD_OPT.digitNo = digitNo;
 80003d0:	4a2c      	ldr	r2, [pc, #176]	@ (8000484 <digitLCDInit+0xfc>)
 80003d2:	f897 3024 	ldrb.w	r3, [r7, #36]	@ 0x24
 80003d6:	7653      	strb	r3, [r2, #25]
	LCD_OPT.height = height;
 80003d8:	4a2a      	ldr	r2, [pc, #168]	@ (8000484 <digitLCDInit+0xfc>)
 80003da:	78bb      	ldrb	r3, [r7, #2]
 80003dc:	7293      	strb	r3, [r2, #10]
	LCD_OPT.width = width;
 80003de:	4a29      	ldr	r2, [pc, #164]	@ (8000484 <digitLCDInit+0xfc>)
 80003e0:	f897 3020 	ldrb.w	r3, [r7, #32]
 80003e4:	72d3      	strb	r3, [r2, #11]
	LCD_OPT.frame = 10; //frame width in px
 80003e6:	4b27      	ldr	r3, [pc, #156]	@ (8000484 <digitLCDInit+0xfc>)
 80003e8:	220a      	movs	r2, #10
 80003ea:	731a      	strb	r2, [r3, #12]
	//fill background
	rectangle(x-LCD_OPT.frame,y-LCD_OPT.frame,digitNo*xOffset+LCD_OPT.frame,height+2*LCD_OPT.frame, LCD_OPT.bgColor);
 80003ec:	4b25      	ldr	r3, [pc, #148]	@ (8000484 <digitLCDInit+0xfc>)
 80003ee:	7b1b      	ldrb	r3, [r3, #12]
 80003f0:	461a      	mov	r2, r3
 80003f2:	88fb      	ldrh	r3, [r7, #6]
 80003f4:	1a9b      	subs	r3, r3, r2
 80003f6:	b298      	uxth	r0, r3
 80003f8:	4b22      	ldr	r3, [pc, #136]	@ (8000484 <digitLCDInit+0xfc>)
 80003fa:	7b1b      	ldrb	r3, [r3, #12]
 80003fc:	461a      	mov	r2, r3
 80003fe:	88bb      	ldrh	r3, [r7, #4]
 8000400:	1a9b      	subs	r3, r3, r2
 8000402:	b299      	uxth	r1, r3
 8000404:	f897 3024 	ldrb.w	r3, [r7, #36]	@ 0x24
 8000408:	b29a      	uxth	r2, r3
 800040a:	78fb      	ldrb	r3, [r7, #3]
 800040c:	b29b      	uxth	r3, r3
 800040e:	fb12 f303 	smulbb	r3, r2, r3
 8000412:	b29b      	uxth	r3, r3
 8000414:	4a1b      	ldr	r2, [pc, #108]	@ (8000484 <digitLCDInit+0xfc>)
 8000416:	7b12      	ldrb	r2, [r2, #12]
 8000418:	4413      	add	r3, r2
 800041a:	b29c      	uxth	r4, r3
 800041c:	78bb      	ldrb	r3, [r7, #2]
 800041e:	b29a      	uxth	r2, r3
 8000420:	4b18      	ldr	r3, [pc, #96]	@ (8000484 <digitLCDInit+0xfc>)
 8000422:	7b1b      	ldrb	r3, [r3, #12]
 8000424:	005b      	lsls	r3, r3, #1
 8000426:	b29b      	uxth	r3, r3
 8000428:	4413      	add	r3, r2
 800042a:	b29a      	uxth	r2, r3
 800042c:	4b15      	ldr	r3, [pc, #84]	@ (8000484 <digitLCDInit+0xfc>)
 800042e:	885b      	ldrh	r3, [r3, #2]
 8000430:	9300      	str	r3, [sp, #0]
 8000432:	4613      	mov	r3, r2
 8000434:	4622      	mov	r2, r4
 8000436:	f000 f8b1 	bl	800059c <rectangle>
	for (uint8_t i=0;i < digitNo;i++){
 800043a:	2300      	movs	r3, #0
 800043c:	73fb      	strb	r3, [r7, #15]
 800043e:	e014      	b.n	800046a <digitLCDInit+0xe2>
		drawDigit_LCD(LCD_OPT.digits[i],x+(i*LCD_OPT.xOffset),y);
 8000440:	7bfb      	ldrb	r3, [r7, #15]
 8000442:	4a10      	ldr	r2, [pc, #64]	@ (8000484 <digitLCDInit+0xfc>)
 8000444:	4413      	add	r3, r2
 8000446:	7cd8      	ldrb	r0, [r3, #19]
 8000448:	7bfb      	ldrb	r3, [r7, #15]
 800044a:	b29b      	uxth	r3, r3
 800044c:	4a0d      	ldr	r2, [pc, #52]	@ (8000484 <digitLCDInit+0xfc>)
 800044e:	7a52      	ldrb	r2, [r2, #9]
 8000450:	fb13 f302 	smulbb	r3, r3, r2
 8000454:	b29a      	uxth	r2, r3
 8000456:	88fb      	ldrh	r3, [r7, #6]
 8000458:	4413      	add	r3, r2
 800045a:	b29b      	uxth	r3, r3
 800045c:	88ba      	ldrh	r2, [r7, #4]
 800045e:	4619      	mov	r1, r3
 8000460:	f000 fb44 	bl	8000aec <drawDigit_LCD>
	for (uint8_t i=0;i < digitNo;i++){
 8000464:	7bfb      	ldrb	r3, [r7, #15]
 8000466:	3301      	adds	r3, #1
 8000468:	73fb      	strb	r3, [r7, #15]
 800046a:	7bfa      	ldrb	r2, [r7, #15]
 800046c:	f897 3024 	ldrb.w	r3, [r7, #36]	@ 0x24
 8000470:	429a      	cmp	r2, r3
 8000472:	d3e5      	bcc.n	8000440 <digitLCDInit+0xb8>

	}

}
 8000474:	bf00      	nop
 8000476:	bf00      	nop
 8000478:	3714      	adds	r7, #20
 800047a:	46bd      	mov	sp, r7
 800047c:	bd90      	pop	{r4, r7, pc}
 800047e:	bf00      	nop
 8000480:	20000010 	.word	0x20000010
 8000484:	20000018 	.word	0x20000018

08000488 <digitLCDUpdate>:

void digitLCDUpdate(uint16_t input){
 8000488:	b580      	push	{r7, lr}
 800048a:	b084      	sub	sp, #16
 800048c:	af00      	add	r7, sp, #0
 800048e:	4603      	mov	r3, r0
 8000490:	80fb      	strh	r3, [r7, #6]
	convertUint16ToChar(input,LCD_OPT.digits,LCD_OPT.digitNo);
 8000492:	4b1e      	ldr	r3, [pc, #120]	@ (800050c <digitLCDUpdate+0x84>)
 8000494:	7e5a      	ldrb	r2, [r3, #25]
 8000496:	88fb      	ldrh	r3, [r7, #6]
 8000498:	491d      	ldr	r1, [pc, #116]	@ (8000510 <digitLCDUpdate+0x88>)
 800049a:	4618      	mov	r0, r3
 800049c:	f000 faf2 	bl	8000a84 <convertUint16ToChar>

	for(uint8_t i=0;i< LCD_OPT.digitNo;i++){
 80004a0:	2300      	movs	r3, #0
 80004a2:	73fb      	strb	r3, [r7, #15]
 80004a4:	e027      	b.n	80004f6 <digitLCDUpdate+0x6e>
		changeDigit_LCD(LCD_OPT.x+i*LCD_OPT.xOffset,LCD_OPT.y,i);
 80004a6:	4b19      	ldr	r3, [pc, #100]	@ (800050c <digitLCDUpdate+0x84>)
 80004a8:	889a      	ldrh	r2, [r3, #4]
 80004aa:	7bfb      	ldrb	r3, [r7, #15]
 80004ac:	b29b      	uxth	r3, r3
 80004ae:	4917      	ldr	r1, [pc, #92]	@ (800050c <digitLCDUpdate+0x84>)
 80004b0:	7a49      	ldrb	r1, [r1, #9]
 80004b2:	fb13 f301 	smulbb	r3, r3, r1
 80004b6:	b29b      	uxth	r3, r3
 80004b8:	4413      	add	r3, r2
 80004ba:	b29b      	uxth	r3, r3
 80004bc:	4a13      	ldr	r2, [pc, #76]	@ (800050c <digitLCDUpdate+0x84>)
 80004be:	88d1      	ldrh	r1, [r2, #6]
 80004c0:	7bfa      	ldrb	r2, [r7, #15]
 80004c2:	4618      	mov	r0, r3
 80004c4:	f000 f826 	bl	8000514 <changeDigit_LCD>
		drawDigit_LCD(LCD_OPT.digits[i],LCD_OPT.x+i*LCD_OPT.xOffset,LCD_OPT.y);
 80004c8:	7bfb      	ldrb	r3, [r7, #15]
 80004ca:	4a10      	ldr	r2, [pc, #64]	@ (800050c <digitLCDUpdate+0x84>)
 80004cc:	4413      	add	r3, r2
 80004ce:	7cd8      	ldrb	r0, [r3, #19]
 80004d0:	4b0e      	ldr	r3, [pc, #56]	@ (800050c <digitLCDUpdate+0x84>)
 80004d2:	889a      	ldrh	r2, [r3, #4]
 80004d4:	7bfb      	ldrb	r3, [r7, #15]
 80004d6:	b29b      	uxth	r3, r3
 80004d8:	490c      	ldr	r1, [pc, #48]	@ (800050c <digitLCDUpdate+0x84>)
 80004da:	7a49      	ldrb	r1, [r1, #9]
 80004dc:	fb13 f301 	smulbb	r3, r3, r1
 80004e0:	b29b      	uxth	r3, r3
 80004e2:	4413      	add	r3, r2
 80004e4:	b29b      	uxth	r3, r3
 80004e6:	4a09      	ldr	r2, [pc, #36]	@ (800050c <digitLCDUpdate+0x84>)
 80004e8:	88d2      	ldrh	r2, [r2, #6]
 80004ea:	4619      	mov	r1, r3
 80004ec:	f000 fafe 	bl	8000aec <drawDigit_LCD>
	for(uint8_t i=0;i< LCD_OPT.digitNo;i++){
 80004f0:	7bfb      	ldrb	r3, [r7, #15]
 80004f2:	3301      	adds	r3, #1
 80004f4:	73fb      	strb	r3, [r7, #15]
 80004f6:	4b05      	ldr	r3, [pc, #20]	@ (800050c <digitLCDUpdate+0x84>)
 80004f8:	7e5b      	ldrb	r3, [r3, #25]
 80004fa:	7bfa      	ldrb	r2, [r7, #15]
 80004fc:	429a      	cmp	r2, r3
 80004fe:	d3d2      	bcc.n	80004a6 <digitLCDUpdate+0x1e>
	}

}
 8000500:	bf00      	nop
 8000502:	bf00      	nop
 8000504:	3710      	adds	r7, #16
 8000506:	46bd      	mov	sp, r7
 8000508:	bd80      	pop	{r7, pc}
 800050a:	bf00      	nop
 800050c:	20000018 	.word	0x20000018
 8000510:	2000002b 	.word	0x2000002b

08000514 <changeDigit_LCD>:
void changeDigit_LCD(uint16_t x, uint16_t y, uint8_t i){
 8000514:	b580      	push	{r7, lr}
 8000516:	b084      	sub	sp, #16
 8000518:	af00      	add	r7, sp, #0
 800051a:	4603      	mov	r3, r0
 800051c:	80fb      	strh	r3, [r7, #6]
 800051e:	460b      	mov	r3, r1
 8000520:	80bb      	strh	r3, [r7, #4]
 8000522:	4613      	mov	r3, r2
 8000524:	70fb      	strb	r3, [r7, #3]
	uint8_t new = castCharToByte(LCD_OPT.digits[i]);
 8000526:	78fb      	ldrb	r3, [r7, #3]
 8000528:	4a1b      	ldr	r2, [pc, #108]	@ (8000598 <changeDigit_LCD+0x84>)
 800052a:	4413      	add	r3, r2
 800052c:	7cdb      	ldrb	r3, [r3, #19]
 800052e:	4618      	mov	r0, r3
 8000530:	f000 fbbc 	bl	8000cac <castCharToByte>
 8000534:	4603      	mov	r3, r0
 8000536:	73fb      	strb	r3, [r7, #15]
	uint8_t old = castCharToByte(LCD_OPT.digits_prev[i]);
 8000538:	78fb      	ldrb	r3, [r7, #3]
 800053a:	4a17      	ldr	r2, [pc, #92]	@ (8000598 <changeDigit_LCD+0x84>)
 800053c:	4413      	add	r3, r2
 800053e:	7b5b      	ldrb	r3, [r3, #13]
 8000540:	4618      	mov	r0, r3
 8000542:	f000 fbb3 	bl	8000cac <castCharToByte>
 8000546:	4603      	mov	r3, r0
 8000548:	73bb      	strb	r3, [r7, #14]
	//if(old == new) return;
	uint8_t erase = (old & ~new);
 800054a:	f997 300f 	ldrsb.w	r3, [r7, #15]
 800054e:	43db      	mvns	r3, r3
 8000550:	b25a      	sxtb	r2, r3
 8000552:	f997 300e 	ldrsb.w	r3, [r7, #14]
 8000556:	4013      	ands	r3, r2
 8000558:	b25b      	sxtb	r3, r3
 800055a:	737b      	strb	r3, [r7, #13]
	uint16_t color = LCD_OPT.color;
 800055c:	4b0e      	ldr	r3, [pc, #56]	@ (8000598 <changeDigit_LCD+0x84>)
 800055e:	881b      	ldrh	r3, [r3, #0]
 8000560:	817b      	strh	r3, [r7, #10]
	LCD_OPT.color = LCD_OPT.bgColor;
 8000562:	4b0d      	ldr	r3, [pc, #52]	@ (8000598 <changeDigit_LCD+0x84>)
 8000564:	885a      	ldrh	r2, [r3, #2]
 8000566:	4b0c      	ldr	r3, [pc, #48]	@ (8000598 <changeDigit_LCD+0x84>)
 8000568:	801a      	strh	r2, [r3, #0]
	draw_statusByte(erase,x,y);
 800056a:	88ba      	ldrh	r2, [r7, #4]
 800056c:	88f9      	ldrh	r1, [r7, #6]
 800056e:	7b7b      	ldrb	r3, [r7, #13]
 8000570:	4618      	mov	r0, r3
 8000572:	f000 fad5 	bl	8000b20 <draw_statusByte>
	LCD_OPT.color = color;
 8000576:	4a08      	ldr	r2, [pc, #32]	@ (8000598 <changeDigit_LCD+0x84>)
 8000578:	897b      	ldrh	r3, [r7, #10]
 800057a:	8013      	strh	r3, [r2, #0]
	LCD_OPT.digits_prev[i] = LCD_OPT.digits[i];
 800057c:	78fa      	ldrb	r2, [r7, #3]
 800057e:	78fb      	ldrb	r3, [r7, #3]
 8000580:	4905      	ldr	r1, [pc, #20]	@ (8000598 <changeDigit_LCD+0x84>)
 8000582:	440a      	add	r2, r1
 8000584:	7cd1      	ldrb	r1, [r2, #19]
 8000586:	4a04      	ldr	r2, [pc, #16]	@ (8000598 <changeDigit_LCD+0x84>)
 8000588:	4413      	add	r3, r2
 800058a:	460a      	mov	r2, r1
 800058c:	735a      	strb	r2, [r3, #13]
}
 800058e:	bf00      	nop
 8000590:	3710      	adds	r7, #16
 8000592:	46bd      	mov	sp, r7
 8000594:	bd80      	pop	{r7, pc}
 8000596:	bf00      	nop
 8000598:	20000018 	.word	0x20000018

0800059c <rectangle>:
void setGraphicsColor(uint16_t color){
	//sets  graphics color
	GRAPH_OPT.color = color;
}

void rectangle( uint16_t x, uint16_t y, uint16_t width, uint16_t height, uint16_t color){
 800059c:	b590      	push	{r4, r7, lr}
 800059e:	b085      	sub	sp, #20
 80005a0:	af02      	add	r7, sp, #8
 80005a2:	4604      	mov	r4, r0
 80005a4:	4608      	mov	r0, r1
 80005a6:	4611      	mov	r1, r2
 80005a8:	461a      	mov	r2, r3
 80005aa:	4623      	mov	r3, r4
 80005ac:	80fb      	strh	r3, [r7, #6]
 80005ae:	4603      	mov	r3, r0
 80005b0:	80bb      	strh	r3, [r7, #4]
 80005b2:	460b      	mov	r3, r1
 80005b4:	807b      	strh	r3, [r7, #2]
 80005b6:	4613      	mov	r3, r2
 80005b8:	803b      	strh	r3, [r7, #0]
	//draws a single color rectangle
	*singleBuffer=color;
 80005ba:	4b0b      	ldr	r3, [pc, #44]	@ (80005e8 <rectangle+0x4c>)
 80005bc:	681b      	ldr	r3, [r3, #0]
 80005be:	8b3a      	ldrh	r2, [r7, #24]
 80005c0:	801a      	strh	r2, [r3, #0]
	fillRectangle_oneColor(singleBuffer,x,y,width,height);
 80005c2:	4b09      	ldr	r3, [pc, #36]	@ (80005e8 <rectangle+0x4c>)
 80005c4:	6818      	ldr	r0, [r3, #0]
 80005c6:	f9b7 1006 	ldrsh.w	r1, [r7, #6]
 80005ca:	f9b7 2004 	ldrsh.w	r2, [r7, #4]
 80005ce:	887b      	ldrh	r3, [r7, #2]
 80005d0:	b2dc      	uxtb	r4, r3
 80005d2:	883b      	ldrh	r3, [r7, #0]
 80005d4:	b2db      	uxtb	r3, r3
 80005d6:	9300      	str	r3, [sp, #0]
 80005d8:	4623      	mov	r3, r4
 80005da:	f000 fd8b 	bl	80010f4 <fillRectangle_oneColor>
}
 80005de:	bf00      	nop
 80005e0:	370c      	adds	r7, #12
 80005e2:	46bd      	mov	sp, r7
 80005e4:	bd90      	pop	{r4, r7, pc}
 80005e6:	bf00      	nop
 80005e8:	20000004 	.word	0x20000004

080005ec <rectangle_empty>:

void rectangle_empty(uint16_t x, uint16_t y, uint16_t width, uint16_t height,uint8_t thickness, uint16_t color){
 80005ec:	b590      	push	{r4, r7, lr}
 80005ee:	b085      	sub	sp, #20
 80005f0:	af02      	add	r7, sp, #8
 80005f2:	4604      	mov	r4, r0
 80005f4:	4608      	mov	r0, r1
 80005f6:	4611      	mov	r1, r2
 80005f8:	461a      	mov	r2, r3
 80005fa:	4623      	mov	r3, r4
 80005fc:	80fb      	strh	r3, [r7, #6]
 80005fe:	4603      	mov	r3, r0
 8000600:	80bb      	strh	r3, [r7, #4]
 8000602:	460b      	mov	r3, r1
 8000604:	807b      	strh	r3, [r7, #2]
 8000606:	4613      	mov	r3, r2
 8000608:	803b      	strh	r3, [r7, #0]
	//draws an empty rectangle without changing the inside pixels
	*singleBuffer=color;
 800060a:	4b23      	ldr	r3, [pc, #140]	@ (8000698 <rectangle_empty+0xac>)
 800060c:	681b      	ldr	r3, [r3, #0]
 800060e:	8bba      	ldrh	r2, [r7, #28]
 8000610:	801a      	strh	r2, [r3, #0]
	fillRectangle_oneColor(singleBuffer,x,y,width,thickness);
 8000612:	4b21      	ldr	r3, [pc, #132]	@ (8000698 <rectangle_empty+0xac>)
 8000614:	6818      	ldr	r0, [r3, #0]
 8000616:	f9b7 1006 	ldrsh.w	r1, [r7, #6]
 800061a:	f9b7 2004 	ldrsh.w	r2, [r7, #4]
 800061e:	887b      	ldrh	r3, [r7, #2]
 8000620:	b2dc      	uxtb	r4, r3
 8000622:	7e3b      	ldrb	r3, [r7, #24]
 8000624:	9300      	str	r3, [sp, #0]
 8000626:	4623      	mov	r3, r4
 8000628:	f000 fd64 	bl	80010f4 <fillRectangle_oneColor>
	fillRectangle_oneColor(singleBuffer,x,y+height,width+thickness,thickness);
 800062c:	4b1a      	ldr	r3, [pc, #104]	@ (8000698 <rectangle_empty+0xac>)
 800062e:	6818      	ldr	r0, [r3, #0]
 8000630:	f9b7 1006 	ldrsh.w	r1, [r7, #6]
 8000634:	88ba      	ldrh	r2, [r7, #4]
 8000636:	883b      	ldrh	r3, [r7, #0]
 8000638:	4413      	add	r3, r2
 800063a:	b29b      	uxth	r3, r3
 800063c:	b21c      	sxth	r4, r3
 800063e:	887b      	ldrh	r3, [r7, #2]
 8000640:	b2da      	uxtb	r2, r3
 8000642:	7e3b      	ldrb	r3, [r7, #24]
 8000644:	4413      	add	r3, r2
 8000646:	b2da      	uxtb	r2, r3
 8000648:	7e3b      	ldrb	r3, [r7, #24]
 800064a:	9300      	str	r3, [sp, #0]
 800064c:	4613      	mov	r3, r2
 800064e:	4622      	mov	r2, r4
 8000650:	f000 fd50 	bl	80010f4 <fillRectangle_oneColor>
	fillRectangle_oneColor(singleBuffer,x,y,thickness,width);
 8000654:	4b10      	ldr	r3, [pc, #64]	@ (8000698 <rectangle_empty+0xac>)
 8000656:	6818      	ldr	r0, [r3, #0]
 8000658:	f9b7 1006 	ldrsh.w	r1, [r7, #6]
 800065c:	f9b7 2004 	ldrsh.w	r2, [r7, #4]
 8000660:	887b      	ldrh	r3, [r7, #2]
 8000662:	b2db      	uxtb	r3, r3
 8000664:	7e3c      	ldrb	r4, [r7, #24]
 8000666:	9300      	str	r3, [sp, #0]
 8000668:	4623      	mov	r3, r4
 800066a:	f000 fd43 	bl	80010f4 <fillRectangle_oneColor>
	fillRectangle_oneColor(singleBuffer,x+width,y,thickness, width);
 800066e:	4b0a      	ldr	r3, [pc, #40]	@ (8000698 <rectangle_empty+0xac>)
 8000670:	6818      	ldr	r0, [r3, #0]
 8000672:	88fa      	ldrh	r2, [r7, #6]
 8000674:	887b      	ldrh	r3, [r7, #2]
 8000676:	4413      	add	r3, r2
 8000678:	b29b      	uxth	r3, r3
 800067a:	b219      	sxth	r1, r3
 800067c:	f9b7 2004 	ldrsh.w	r2, [r7, #4]
 8000680:	887b      	ldrh	r3, [r7, #2]
 8000682:	b2db      	uxtb	r3, r3
 8000684:	7e3c      	ldrb	r4, [r7, #24]
 8000686:	9300      	str	r3, [sp, #0]
 8000688:	4623      	mov	r3, r4
 800068a:	f000 fd33 	bl	80010f4 <fillRectangle_oneColor>


}
 800068e:	bf00      	nop
 8000690:	370c      	adds	r7, #12
 8000692:	46bd      	mov	sp, r7
 8000694:	bd90      	pop	{r4, r7, pc}
 8000696:	bf00      	nop
 8000698:	20000004 	.word	0x20000004

0800069c <writeLetter>:

void writeLetter(char letter, uint16_t x, uint16_t y,uint16_t color,uint16_t background){
 800069c:	b590      	push	{r4, r7, lr}
 800069e:	b089      	sub	sp, #36	@ 0x24
 80006a0:	af02      	add	r7, sp, #8
 80006a2:	4604      	mov	r4, r0
 80006a4:	4608      	mov	r0, r1
 80006a6:	4611      	mov	r1, r2
 80006a8:	461a      	mov	r2, r3
 80006aa:	4623      	mov	r3, r4
 80006ac:	71fb      	strb	r3, [r7, #7]
 80006ae:	4603      	mov	r3, r0
 80006b0:	80bb      	strh	r3, [r7, #4]
 80006b2:	460b      	mov	r3, r1
 80006b4:	807b      	strh	r3, [r7, #2]
 80006b6:	4613      	mov	r3, r2
 80006b8:	803b      	strh	r3, [r7, #0]
	const Glyph *g = &font[(uint8_t)letter];
 80006ba:	79fb      	ldrb	r3, [r7, #7]
 80006bc:	00db      	lsls	r3, r3, #3
 80006be:	4a4b      	ldr	r2, [pc, #300]	@ (80007ec <writeLetter+0x150>)
 80006c0:	4413      	add	r3, r2
 80006c2:	613b      	str	r3, [r7, #16]
	uint8_t letterHeight = 8;
 80006c4:	2308      	movs	r3, #8
 80006c6:	73fb      	strb	r3, [r7, #15]
	uint8_t letterWidth = 8;
 80006c8:	2308      	movs	r3, #8
 80006ca:	73bb      	strb	r3, [r7, #14]
	initAdressWindow(x, y, letterWidth, letterHeight);
 80006cc:	7bbb      	ldrb	r3, [r7, #14]
 80006ce:	b29a      	uxth	r2, r3
 80006d0:	7bfb      	ldrb	r3, [r7, #15]
 80006d2:	b29b      	uxth	r3, r3
 80006d4:	8879      	ldrh	r1, [r7, #2]
 80006d6:	88b8      	ldrh	r0, [r7, #4]
 80006d8:	f000 fdde 	bl	8001298 <initAdressWindow>
    for (uint8_t i = 0 ;i<4;i++){
 80006dc:	2300      	movs	r3, #0
 80006de:	75fb      	strb	r3, [r7, #23]
 80006e0:	e065      	b.n	80007ae <writeLetter+0x112>
    	for(uint8_t j=0; j<8;j++){
 80006e2:	2300      	movs	r3, #0
 80006e4:	75bb      	strb	r3, [r7, #22]
 80006e6:	e05c      	b.n	80007a2 <writeLetter+0x106>
    			//fist half of letter
    			localBuffer[i][j] = (uint16_t)((g->rows[1]>>(i*8+j)) & 0x00000001) *color;
 80006e8:	693b      	ldr	r3, [r7, #16]
 80006ea:	685a      	ldr	r2, [r3, #4]
 80006ec:	7dfb      	ldrb	r3, [r7, #23]
 80006ee:	00d9      	lsls	r1, r3, #3
 80006f0:	7dbb      	ldrb	r3, [r7, #22]
 80006f2:	440b      	add	r3, r1
 80006f4:	fa22 f303 	lsr.w	r3, r2, r3
 80006f8:	b29b      	uxth	r3, r3
 80006fa:	f003 0301 	and.w	r3, r3, #1
 80006fe:	b299      	uxth	r1, r3
 8000700:	7dfa      	ldrb	r2, [r7, #23]
 8000702:	7dbb      	ldrb	r3, [r7, #22]
 8000704:	8838      	ldrh	r0, [r7, #0]
 8000706:	fb10 f101 	smulbb	r1, r0, r1
 800070a:	b288      	uxth	r0, r1
 800070c:	4938      	ldr	r1, [pc, #224]	@ (80007f0 <writeLetter+0x154>)
 800070e:	00d2      	lsls	r2, r2, #3
 8000710:	4413      	add	r3, r2
 8000712:	4602      	mov	r2, r0
 8000714:	f821 2013 	strh.w	r2, [r1, r3, lsl #1]
    			//second half of letter
    			localBuffer[4+i][j] = (uint16_t)((g->rows[0]>>(i*8+j)) & 0x00000001) *color;
 8000718:	693b      	ldr	r3, [r7, #16]
 800071a:	681a      	ldr	r2, [r3, #0]
 800071c:	7dfb      	ldrb	r3, [r7, #23]
 800071e:	00d9      	lsls	r1, r3, #3
 8000720:	7dbb      	ldrb	r3, [r7, #22]
 8000722:	440b      	add	r3, r1
 8000724:	fa22 f303 	lsr.w	r3, r2, r3
 8000728:	b29b      	uxth	r3, r3
 800072a:	f003 0301 	and.w	r3, r3, #1
 800072e:	b299      	uxth	r1, r3
 8000730:	7dfb      	ldrb	r3, [r7, #23]
 8000732:	1d1a      	adds	r2, r3, #4
 8000734:	7dbb      	ldrb	r3, [r7, #22]
 8000736:	8838      	ldrh	r0, [r7, #0]
 8000738:	fb10 f101 	smulbb	r1, r0, r1
 800073c:	b288      	uxth	r0, r1
 800073e:	492c      	ldr	r1, [pc, #176]	@ (80007f0 <writeLetter+0x154>)
 8000740:	00d2      	lsls	r2, r2, #3
 8000742:	4413      	add	r3, r2
 8000744:	4602      	mov	r2, r0
 8000746:	f821 2013 	strh.w	r2, [r1, r3, lsl #1]
    			//background
    			if(!((g->rows[0]>>(i*8+j)) & 0x00000001)) localBuffer[4+i][j]=background;
 800074a:	693b      	ldr	r3, [r7, #16]
 800074c:	681a      	ldr	r2, [r3, #0]
 800074e:	7dfb      	ldrb	r3, [r7, #23]
 8000750:	00d9      	lsls	r1, r3, #3
 8000752:	7dbb      	ldrb	r3, [r7, #22]
 8000754:	440b      	add	r3, r1
 8000756:	fa22 f303 	lsr.w	r3, r2, r3
 800075a:	f003 0301 	and.w	r3, r3, #1
 800075e:	2b00      	cmp	r3, #0
 8000760:	d108      	bne.n	8000774 <writeLetter+0xd8>
 8000762:	7dfb      	ldrb	r3, [r7, #23]
 8000764:	1d1a      	adds	r2, r3, #4
 8000766:	7dbb      	ldrb	r3, [r7, #22]
 8000768:	4921      	ldr	r1, [pc, #132]	@ (80007f0 <writeLetter+0x154>)
 800076a:	00d2      	lsls	r2, r2, #3
 800076c:	4413      	add	r3, r2
 800076e:	8d3a      	ldrh	r2, [r7, #40]	@ 0x28
 8000770:	f821 2013 	strh.w	r2, [r1, r3, lsl #1]
    			if(!((g->rows[1]>>(i*8+j)) & 0x00000001)) localBuffer[i][j]=background;
 8000774:	693b      	ldr	r3, [r7, #16]
 8000776:	685a      	ldr	r2, [r3, #4]
 8000778:	7dfb      	ldrb	r3, [r7, #23]
 800077a:	00d9      	lsls	r1, r3, #3
 800077c:	7dbb      	ldrb	r3, [r7, #22]
 800077e:	440b      	add	r3, r1
 8000780:	fa22 f303 	lsr.w	r3, r2, r3
 8000784:	f003 0301 	and.w	r3, r3, #1
 8000788:	2b00      	cmp	r3, #0
 800078a:	d107      	bne.n	800079c <writeLetter+0x100>
 800078c:	7dfa      	ldrb	r2, [r7, #23]
 800078e:	7dbb      	ldrb	r3, [r7, #22]
 8000790:	4917      	ldr	r1, [pc, #92]	@ (80007f0 <writeLetter+0x154>)
 8000792:	00d2      	lsls	r2, r2, #3
 8000794:	4413      	add	r3, r2
 8000796:	8d3a      	ldrh	r2, [r7, #40]	@ 0x28
 8000798:	f821 2013 	strh.w	r2, [r1, r3, lsl #1]
    	for(uint8_t j=0; j<8;j++){
 800079c:	7dbb      	ldrb	r3, [r7, #22]
 800079e:	3301      	adds	r3, #1
 80007a0:	75bb      	strb	r3, [r7, #22]
 80007a2:	7dbb      	ldrb	r3, [r7, #22]
 80007a4:	2b07      	cmp	r3, #7
 80007a6:	d99f      	bls.n	80006e8 <writeLetter+0x4c>
    for (uint8_t i = 0 ;i<4;i++){
 80007a8:	7dfb      	ldrb	r3, [r7, #23]
 80007aa:	3301      	adds	r3, #1
 80007ac:	75fb      	strb	r3, [r7, #23]
 80007ae:	7dfb      	ldrb	r3, [r7, #23]
 80007b0:	2b03      	cmp	r3, #3
 80007b2:	d996      	bls.n	80006e2 <writeLetter+0x46>
    	}
    }
	if (TEXT_OPT.doubleSized) fillSquare_scaleup(localBuffer,x,y,letterHeight);
 80007b4:	4b0f      	ldr	r3, [pc, #60]	@ (80007f4 <writeLetter+0x158>)
 80007b6:	781b      	ldrb	r3, [r3, #0]
 80007b8:	2b00      	cmp	r3, #0
 80007ba:	d007      	beq.n	80007cc <writeLetter+0x130>
 80007bc:	7bfb      	ldrb	r3, [r7, #15]
 80007be:	b29b      	uxth	r3, r3
 80007c0:	887a      	ldrh	r2, [r7, #2]
 80007c2:	88b9      	ldrh	r1, [r7, #4]
 80007c4:	480a      	ldr	r0, [pc, #40]	@ (80007f0 <writeLetter+0x154>)
 80007c6:	f000 fce5 	bl	8001194 <fillSquare_scaleup>
	else fillRectangle(localBuffer,x,y,letterHeight,letterWidth);
}
 80007ca:	e00a      	b.n	80007e2 <writeLetter+0x146>
	else fillRectangle(localBuffer,x,y,letterHeight,letterWidth);
 80007cc:	f9b7 1004 	ldrsh.w	r1, [r7, #4]
 80007d0:	f9b7 2002 	ldrsh.w	r2, [r7, #2]
 80007d4:	7bf8      	ldrb	r0, [r7, #15]
 80007d6:	7bbb      	ldrb	r3, [r7, #14]
 80007d8:	9300      	str	r3, [sp, #0]
 80007da:	4603      	mov	r3, r0
 80007dc:	4804      	ldr	r0, [pc, #16]	@ (80007f0 <writeLetter+0x154>)
 80007de:	f000 fc01 	bl	8000fe4 <fillRectangle>
}
 80007e2:	bf00      	nop
 80007e4:	371c      	adds	r7, #28
 80007e6:	46bd      	mov	sp, r7
 80007e8:	bd90      	pop	{r4, r7, pc}
 80007ea:	bf00      	nop
 80007ec:	08001afc 	.word	0x08001afc
 80007f0:	20000050 	.word	0x20000050
 80007f4:	20000008 	.word	0x20000008

080007f8 <writeWord>:

void writeWord(const char *word, uint16_t x, uint16_t y,uint16_t color){
 80007f8:	b590      	push	{r4, r7, lr}
 80007fa:	b089      	sub	sp, #36	@ 0x24
 80007fc:	af02      	add	r7, sp, #8
 80007fe:	60f8      	str	r0, [r7, #12]
 8000800:	4608      	mov	r0, r1
 8000802:	4611      	mov	r1, r2
 8000804:	461a      	mov	r2, r3
 8000806:	4603      	mov	r3, r0
 8000808:	817b      	strh	r3, [r7, #10]
 800080a:	460b      	mov	r3, r1
 800080c:	813b      	strh	r3, [r7, #8]
 800080e:	4613      	mov	r3, r2
 8000810:	80fb      	strh	r3, [r7, #6]
		uint8_t spacing = 15;
 8000812:	230f      	movs	r3, #15
 8000814:	753b      	strb	r3, [r7, #20]
		int16_t cursor = -spacing;
 8000816:	7d3b      	ldrb	r3, [r7, #20]
 8000818:	b29b      	uxth	r3, r3
 800081a:	425b      	negs	r3, r3
 800081c:	b29b      	uxth	r3, r3
 800081e:	82fb      	strh	r3, [r7, #22]
		for(uint8_t i=0 ; word[i] !='\0'; i++){
 8000820:	2300      	movs	r3, #0
 8000822:	757b      	strb	r3, [r7, #21]
 8000824:	e037      	b.n	8000896 <writeWord+0x9e>
			switch(word[i-1]){
 8000826:	7d7b      	ldrb	r3, [r7, #21]
 8000828:	3b01      	subs	r3, #1
 800082a:	68fa      	ldr	r2, [r7, #12]
 800082c:	4413      	add	r3, r2
 800082e:	781b      	ldrb	r3, [r3, #0]
 8000830:	2b49      	cmp	r3, #73	@ 0x49
 8000832:	d002      	beq.n	800083a <writeWord+0x42>
 8000834:	2b4c      	cmp	r3, #76	@ 0x4c
 8000836:	d009      	beq.n	800084c <writeWord+0x54>
 8000838:	e011      	b.n	800085e <writeWord+0x66>
			case('I'):
				cursor += (spacing-8);
 800083a:	7d3b      	ldrb	r3, [r7, #20]
 800083c:	b29a      	uxth	r2, r3
 800083e:	8afb      	ldrh	r3, [r7, #22]
 8000840:	4413      	add	r3, r2
 8000842:	b29b      	uxth	r3, r3
 8000844:	3b08      	subs	r3, #8
 8000846:	b29b      	uxth	r3, r3
 8000848:	82fb      	strh	r3, [r7, #22]
				break;
 800084a:	e00e      	b.n	800086a <writeWord+0x72>
			case('L'):
					cursor += (spacing-2);
 800084c:	7d3b      	ldrb	r3, [r7, #20]
 800084e:	b29a      	uxth	r2, r3
 8000850:	8afb      	ldrh	r3, [r7, #22]
 8000852:	4413      	add	r3, r2
 8000854:	b29b      	uxth	r3, r3
 8000856:	3b02      	subs	r3, #2
 8000858:	b29b      	uxth	r3, r3
 800085a:	82fb      	strh	r3, [r7, #22]
					break;
 800085c:	e005      	b.n	800086a <writeWord+0x72>
			default:
			cursor += spacing;
 800085e:	7d3b      	ldrb	r3, [r7, #20]
 8000860:	b29a      	uxth	r2, r3
 8000862:	8afb      	ldrh	r3, [r7, #22]
 8000864:	4413      	add	r3, r2
 8000866:	b29b      	uxth	r3, r3
 8000868:	82fb      	strh	r3, [r7, #22]
			}
			writeLetter((char)word[i],x-cursor,y,color,TEXT_OPT.bgColor);
 800086a:	7d7b      	ldrb	r3, [r7, #21]
 800086c:	68fa      	ldr	r2, [r7, #12]
 800086e:	4413      	add	r3, r2
 8000870:	7818      	ldrb	r0, [r3, #0]
 8000872:	8afb      	ldrh	r3, [r7, #22]
 8000874:	897a      	ldrh	r2, [r7, #10]
 8000876:	1ad3      	subs	r3, r2, r3
 8000878:	b299      	uxth	r1, r3
 800087a:	4b0d      	ldr	r3, [pc, #52]	@ (80008b0 <writeWord+0xb8>)
 800087c:	889b      	ldrh	r3, [r3, #4]
 800087e:	88fc      	ldrh	r4, [r7, #6]
 8000880:	893a      	ldrh	r2, [r7, #8]
 8000882:	9300      	str	r3, [sp, #0]
 8000884:	4623      	mov	r3, r4
 8000886:	f7ff ff09 	bl	800069c <writeLetter>

			if (i==MAXWORDLENGTH) break;
 800088a:	7d7b      	ldrb	r3, [r7, #21]
 800088c:	2b19      	cmp	r3, #25
 800088e:	d009      	beq.n	80008a4 <writeWord+0xac>
		for(uint8_t i=0 ; word[i] !='\0'; i++){
 8000890:	7d7b      	ldrb	r3, [r7, #21]
 8000892:	3301      	adds	r3, #1
 8000894:	757b      	strb	r3, [r7, #21]
 8000896:	7d7b      	ldrb	r3, [r7, #21]
 8000898:	68fa      	ldr	r2, [r7, #12]
 800089a:	4413      	add	r3, r2
 800089c:	781b      	ldrb	r3, [r3, #0]
 800089e:	2b00      	cmp	r3, #0
 80008a0:	d1c1      	bne.n	8000826 <writeWord+0x2e>
		}
}
 80008a2:	e000      	b.n	80008a6 <writeWord+0xae>
			if (i==MAXWORDLENGTH) break;
 80008a4:	bf00      	nop
}
 80008a6:	bf00      	nop
 80008a8:	371c      	adds	r7, #28
 80008aa:	46bd      	mov	sp, r7
 80008ac:	bd90      	pop	{r4, r7, pc}
 80008ae:	bf00      	nop
 80008b0:	20000008 	.word	0x20000008

080008b4 <sin_deg>:

int16_t sin_deg(int16_t x){
 80008b4:	b480      	push	{r7}
 80008b6:	b085      	sub	sp, #20
 80008b8:	af00      	add	r7, sp, #0
 80008ba:	4603      	mov	r3, r0
 80008bc:	80fb      	strh	r3, [r7, #6]
	//NOTE: -720<x<720 is required outside undefined
	// return values -255...+255
	int8_t sign=1;
 80008be:	2301      	movs	r3, #1
 80008c0:	73fb      	strb	r3, [r7, #15]
	int16_t output=0;
 80008c2:	2300      	movs	r3, #0
 80008c4:	81bb      	strh	r3, [r7, #12]

	//check for negative x, fold back to [0,90) with right sign
	if (x<0) {
 80008c6:	f9b7 3006 	ldrsh.w	r3, [r7, #6]
 80008ca:	2b00      	cmp	r3, #0
 80008cc:	da07      	bge.n	80008de <sin_deg+0x2a>
		sign = -sign;
 80008ce:	7bfb      	ldrb	r3, [r7, #15]
 80008d0:	425b      	negs	r3, r3
 80008d2:	b2db      	uxtb	r3, r3
 80008d4:	73fb      	strb	r3, [r7, #15]
		x =-x;
 80008d6:	88fb      	ldrh	r3, [r7, #6]
 80008d8:	425b      	negs	r3, r3
 80008da:	b29b      	uxth	r3, r3
 80008dc:	80fb      	strh	r3, [r7, #6]
	}
	// accept 720° range,
	if(x>=360) x= x-360;
 80008de:	f9b7 3006 	ldrsh.w	r3, [r7, #6]
 80008e2:	f5b3 7fb4 	cmp.w	r3, #360	@ 0x168
 80008e6:	db04      	blt.n	80008f2 <sin_deg+0x3e>
 80008e8:	88fb      	ldrh	r3, [r7, #6]
 80008ea:	f5a3 73b4 	sub.w	r3, r3, #360	@ 0x168
 80008ee:	b29b      	uxth	r3, r3
 80008f0:	80fb      	strh	r3, [r7, #6]

	//set output to correspondig value of sine_table
	// sine_table: 0..255 corresponds to sin(x)*255
	if (0 <= x && x <= 90) output = sine_table[x];
 80008f2:	f9b7 3006 	ldrsh.w	r3, [r7, #6]
 80008f6:	2b00      	cmp	r3, #0
 80008f8:	db08      	blt.n	800090c <sin_deg+0x58>
 80008fa:	f9b7 3006 	ldrsh.w	r3, [r7, #6]
 80008fe:	2b5a      	cmp	r3, #90	@ 0x5a
 8000900:	dc04      	bgt.n	800090c <sin_deg+0x58>
 8000902:	f9b7 3006 	ldrsh.w	r3, [r7, #6]
 8000906:	4a22      	ldr	r2, [pc, #136]	@ (8000990 <sin_deg+0xdc>)
 8000908:	5cd3      	ldrb	r3, [r2, r3]
 800090a:	81bb      	strh	r3, [r7, #12]
	if (90 < x && x <= 180) output = sine_table[-x+180];
 800090c:	f9b7 3006 	ldrsh.w	r3, [r7, #6]
 8000910:	2b5a      	cmp	r3, #90	@ 0x5a
 8000912:	dd0a      	ble.n	800092a <sin_deg+0x76>
 8000914:	f9b7 3006 	ldrsh.w	r3, [r7, #6]
 8000918:	2bb4      	cmp	r3, #180	@ 0xb4
 800091a:	dc06      	bgt.n	800092a <sin_deg+0x76>
 800091c:	f9b7 3006 	ldrsh.w	r3, [r7, #6]
 8000920:	f1c3 03b4 	rsb	r3, r3, #180	@ 0xb4
 8000924:	4a1a      	ldr	r2, [pc, #104]	@ (8000990 <sin_deg+0xdc>)
 8000926:	5cd3      	ldrb	r3, [r2, r3]
 8000928:	81bb      	strh	r3, [r7, #12]
	if (180 < x && x <= 270) output = -sine_table[x-180];
 800092a:	f9b7 3006 	ldrsh.w	r3, [r7, #6]
 800092e:	2bb4      	cmp	r3, #180	@ 0xb4
 8000930:	dd0c      	ble.n	800094c <sin_deg+0x98>
 8000932:	f9b7 3006 	ldrsh.w	r3, [r7, #6]
 8000936:	f5b3 7f87 	cmp.w	r3, #270	@ 0x10e
 800093a:	dc07      	bgt.n	800094c <sin_deg+0x98>
 800093c:	f9b7 3006 	ldrsh.w	r3, [r7, #6]
 8000940:	3bb4      	subs	r3, #180	@ 0xb4
 8000942:	4a13      	ldr	r2, [pc, #76]	@ (8000990 <sin_deg+0xdc>)
 8000944:	5cd3      	ldrb	r3, [r2, r3]
 8000946:	425b      	negs	r3, r3
 8000948:	b29b      	uxth	r3, r3
 800094a:	81bb      	strh	r3, [r7, #12]
	if (270 < x && x <= 360) output = -(sine_table[-x+360]);
 800094c:	f9b7 3006 	ldrsh.w	r3, [r7, #6]
 8000950:	f5b3 7f87 	cmp.w	r3, #270	@ 0x10e
 8000954:	dd0d      	ble.n	8000972 <sin_deg+0xbe>
 8000956:	f9b7 3006 	ldrsh.w	r3, [r7, #6]
 800095a:	f5b3 7fb4 	cmp.w	r3, #360	@ 0x168
 800095e:	dc08      	bgt.n	8000972 <sin_deg+0xbe>
 8000960:	f9b7 3006 	ldrsh.w	r3, [r7, #6]
 8000964:	f5c3 73b4 	rsb	r3, r3, #360	@ 0x168
 8000968:	4a09      	ldr	r2, [pc, #36]	@ (8000990 <sin_deg+0xdc>)
 800096a:	5cd3      	ldrb	r3, [r2, r3]
 800096c:	425b      	negs	r3, r3
 800096e:	b29b      	uxth	r3, r3
 8000970:	81bb      	strh	r3, [r7, #12]
	return sign * output;
 8000972:	f997 300f 	ldrsb.w	r3, [r7, #15]
 8000976:	b29a      	uxth	r2, r3
 8000978:	89bb      	ldrh	r3, [r7, #12]
 800097a:	fb12 f303 	smulbb	r3, r2, r3
 800097e:	b29b      	uxth	r3, r3
 8000980:	b21b      	sxth	r3, r3
}
 8000982:	4618      	mov	r0, r3
 8000984:	3714      	adds	r7, #20
 8000986:	46bd      	mov	sp, r7
 8000988:	f85d 7b04 	ldr.w	r7, [sp], #4
 800098c:	4770      	bx	lr
 800098e:	bf00      	nop
 8000990:	08001eac 	.word	0x08001eac

08000994 <cos_deg>:

int16_t cos_deg(int16_t x){
 8000994:	b580      	push	{r7, lr}
 8000996:	b082      	sub	sp, #8
 8000998:	af00      	add	r7, sp, #0
 800099a:	4603      	mov	r3, r0
 800099c:	80fb      	strh	r3, [r7, #6]
	//NOTE: -720<x<720 is required outside undefined
	// return values -255...+255
	// accept 720° range
	if(x>=360) x= x-360;
 800099e:	f9b7 3006 	ldrsh.w	r3, [r7, #6]
 80009a2:	f5b3 7fb4 	cmp.w	r3, #360	@ 0x168
 80009a6:	db04      	blt.n	80009b2 <cos_deg+0x1e>
 80009a8:	88fb      	ldrh	r3, [r7, #6]
 80009aa:	f5a3 73b4 	sub.w	r3, r3, #360	@ 0x168
 80009ae:	b29b      	uxth	r3, r3
 80009b0:	80fb      	strh	r3, [r7, #6]
	//NOTE: -360<x<360 is required
	return sin_deg(x-90);
 80009b2:	88fb      	ldrh	r3, [r7, #6]
 80009b4:	3b5a      	subs	r3, #90	@ 0x5a
 80009b6:	b29b      	uxth	r3, r3
 80009b8:	b21b      	sxth	r3, r3
 80009ba:	4618      	mov	r0, r3
 80009bc:	f7ff ff7a 	bl	80008b4 <sin_deg>
 80009c0:	4603      	mov	r3, r0
}
 80009c2:	4618      	mov	r0, r3
 80009c4:	3708      	adds	r7, #8
 80009c6:	46bd      	mov	sp, r7
 80009c8:	bd80      	pop	{r7, pc}
	...

080009cc <drawLine>:
		rectangle(x+sin_deg(deg)*d/255,y+cos_deg(deg)*d/255,GRAPH_OPT.thickness,GRAPH_OPT.thickness,GRAPH_OPT.color);
	}
	return;
}

void drawLine(uint16_t x, uint16_t y, uint16_t length, uint16_t phi){
 80009cc:	b5b0      	push	{r4, r5, r7, lr}
 80009ce:	b086      	sub	sp, #24
 80009d0:	af02      	add	r7, sp, #8
 80009d2:	4604      	mov	r4, r0
 80009d4:	4608      	mov	r0, r1
 80009d6:	4611      	mov	r1, r2
 80009d8:	461a      	mov	r2, r3
 80009da:	4623      	mov	r3, r4
 80009dc:	80fb      	strh	r3, [r7, #6]
 80009de:	4603      	mov	r3, r0
 80009e0:	80bb      	strh	r3, [r7, #4]
 80009e2:	460b      	mov	r3, r1
 80009e4:	807b      	strh	r3, [r7, #2]
 80009e6:	4613      	mov	r3, r2
 80009e8:	803b      	strh	r3, [r7, #0]
	for (uint8_t step=0; step < length;step+=GRAPH_OPT.thickness>>1){
 80009ea:	2300      	movs	r3, #0
 80009ec:	73fb      	strb	r3, [r7, #15]
 80009ee:	e03b      	b.n	8000a68 <drawLine+0x9c>
		rectangle(x+(step*cos_deg(phi)/255),y+(step*sin_deg(phi)/255),GRAPH_OPT.thickness,GRAPH_OPT.thickness,GRAPH_OPT.color);
 80009f0:	7bfc      	ldrb	r4, [r7, #15]
 80009f2:	f9b7 3000 	ldrsh.w	r3, [r7]
 80009f6:	4618      	mov	r0, r3
 80009f8:	f7ff ffcc 	bl	8000994 <cos_deg>
 80009fc:	4603      	mov	r3, r0
 80009fe:	fb04 f303 	mul.w	r3, r4, r3
 8000a02:	4a1e      	ldr	r2, [pc, #120]	@ (8000a7c <drawLine+0xb0>)
 8000a04:	fb82 1203 	smull	r1, r2, r2, r3
 8000a08:	441a      	add	r2, r3
 8000a0a:	11d2      	asrs	r2, r2, #7
 8000a0c:	17db      	asrs	r3, r3, #31
 8000a0e:	1ad3      	subs	r3, r2, r3
 8000a10:	b29a      	uxth	r2, r3
 8000a12:	88fb      	ldrh	r3, [r7, #6]
 8000a14:	4413      	add	r3, r2
 8000a16:	b29d      	uxth	r5, r3
 8000a18:	7bfc      	ldrb	r4, [r7, #15]
 8000a1a:	f9b7 3000 	ldrsh.w	r3, [r7]
 8000a1e:	4618      	mov	r0, r3
 8000a20:	f7ff ff48 	bl	80008b4 <sin_deg>
 8000a24:	4603      	mov	r3, r0
 8000a26:	fb04 f303 	mul.w	r3, r4, r3
 8000a2a:	4a14      	ldr	r2, [pc, #80]	@ (8000a7c <drawLine+0xb0>)
 8000a2c:	fb82 1203 	smull	r1, r2, r2, r3
 8000a30:	441a      	add	r2, r3
 8000a32:	11d2      	asrs	r2, r2, #7
 8000a34:	17db      	asrs	r3, r3, #31
 8000a36:	1ad3      	subs	r3, r2, r3
 8000a38:	b29a      	uxth	r2, r3
 8000a3a:	88bb      	ldrh	r3, [r7, #4]
 8000a3c:	4413      	add	r3, r2
 8000a3e:	b299      	uxth	r1, r3
 8000a40:	4b0f      	ldr	r3, [pc, #60]	@ (8000a80 <drawLine+0xb4>)
 8000a42:	791b      	ldrb	r3, [r3, #4]
 8000a44:	461a      	mov	r2, r3
 8000a46:	4b0e      	ldr	r3, [pc, #56]	@ (8000a80 <drawLine+0xb4>)
 8000a48:	791b      	ldrb	r3, [r3, #4]
 8000a4a:	4618      	mov	r0, r3
 8000a4c:	4b0c      	ldr	r3, [pc, #48]	@ (8000a80 <drawLine+0xb4>)
 8000a4e:	881b      	ldrh	r3, [r3, #0]
 8000a50:	9300      	str	r3, [sp, #0]
 8000a52:	4603      	mov	r3, r0
 8000a54:	4628      	mov	r0, r5
 8000a56:	f7ff fda1 	bl	800059c <rectangle>
	for (uint8_t step=0; step < length;step+=GRAPH_OPT.thickness>>1){
 8000a5a:	4b09      	ldr	r3, [pc, #36]	@ (8000a80 <drawLine+0xb4>)
 8000a5c:	791b      	ldrb	r3, [r3, #4]
 8000a5e:	085b      	lsrs	r3, r3, #1
 8000a60:	b2da      	uxtb	r2, r3
 8000a62:	7bfb      	ldrb	r3, [r7, #15]
 8000a64:	4413      	add	r3, r2
 8000a66:	73fb      	strb	r3, [r7, #15]
 8000a68:	7bfb      	ldrb	r3, [r7, #15]
 8000a6a:	b29b      	uxth	r3, r3
 8000a6c:	887a      	ldrh	r2, [r7, #2]
 8000a6e:	429a      	cmp	r2, r3
 8000a70:	d8be      	bhi.n	80009f0 <drawLine+0x24>
	}
}
 8000a72:	bf00      	nop
 8000a74:	bf00      	nop
 8000a76:	3710      	adds	r7, #16
 8000a78:	46bd      	mov	sp, r7
 8000a7a:	bdb0      	pop	{r4, r5, r7, pc}
 8000a7c:	80808081 	.word	0x80808081
 8000a80:	20000010 	.word	0x20000010

08000a84 <convertUint16ToChar>:
	    char buffer[MAXDIGIT]={'0','0','0','0','0'};   // max "65535" + '\0'
	    convertUint16ToChar(input, buffer,max);
	    writeWord(buffer, x, y, TEXT_OPT.color);
	}

void convertUint16ToChar(uint16_t input, char* buffer, uint8_t max){
 8000a84:	b480      	push	{r7}
 8000a86:	b085      	sub	sp, #20
 8000a88:	af00      	add	r7, sp, #0
 8000a8a:	4603      	mov	r3, r0
 8000a8c:	6039      	str	r1, [r7, #0]
 8000a8e:	80fb      	strh	r3, [r7, #6]
 8000a90:	4613      	mov	r3, r2
 8000a92:	717b      	strb	r3, [r7, #5]

    for(uint8_t i = 0;i<=max;i++) {
 8000a94:	2300      	movs	r3, #0
 8000a96:	73fb      	strb	r3, [r7, #15]
 8000a98:	e01a      	b.n	8000ad0 <convertUint16ToChar+0x4c>
        buffer[i] = '0' + (input % 10);
 8000a9a:	88fa      	ldrh	r2, [r7, #6]
 8000a9c:	4b12      	ldr	r3, [pc, #72]	@ (8000ae8 <convertUint16ToChar+0x64>)
 8000a9e:	fba3 1302 	umull	r1, r3, r3, r2
 8000aa2:	08d9      	lsrs	r1, r3, #3
 8000aa4:	460b      	mov	r3, r1
 8000aa6:	009b      	lsls	r3, r3, #2
 8000aa8:	440b      	add	r3, r1
 8000aaa:	005b      	lsls	r3, r3, #1
 8000aac:	1ad3      	subs	r3, r2, r3
 8000aae:	b29b      	uxth	r3, r3
 8000ab0:	b2da      	uxtb	r2, r3
 8000ab2:	7bfb      	ldrb	r3, [r7, #15]
 8000ab4:	6839      	ldr	r1, [r7, #0]
 8000ab6:	440b      	add	r3, r1
 8000ab8:	3230      	adds	r2, #48	@ 0x30
 8000aba:	b2d2      	uxtb	r2, r2
 8000abc:	701a      	strb	r2, [r3, #0]
        input /= 10;
 8000abe:	88fb      	ldrh	r3, [r7, #6]
 8000ac0:	4a09      	ldr	r2, [pc, #36]	@ (8000ae8 <convertUint16ToChar+0x64>)
 8000ac2:	fba2 2303 	umull	r2, r3, r2, r3
 8000ac6:	08db      	lsrs	r3, r3, #3
 8000ac8:	80fb      	strh	r3, [r7, #6]
    for(uint8_t i = 0;i<=max;i++) {
 8000aca:	7bfb      	ldrb	r3, [r7, #15]
 8000acc:	3301      	adds	r3, #1
 8000ace:	73fb      	strb	r3, [r7, #15]
 8000ad0:	7bfa      	ldrb	r2, [r7, #15]
 8000ad2:	797b      	ldrb	r3, [r7, #5]
 8000ad4:	429a      	cmp	r2, r3
 8000ad6:	d9e0      	bls.n	8000a9a <convertUint16ToChar+0x16>
    }
}
 8000ad8:	bf00      	nop
 8000ada:	bf00      	nop
 8000adc:	3714      	adds	r7, #20
 8000ade:	46bd      	mov	sp, r7
 8000ae0:	f85d 7b04 	ldr.w	r7, [sp], #4
 8000ae4:	4770      	bx	lr
 8000ae6:	bf00      	nop
 8000ae8:	cccccccd 	.word	0xcccccccd

08000aec <drawDigit_LCD>:

void drawDigit_LCD(char num, uint16_t x, uint16_t y){
 8000aec:	b580      	push	{r7, lr}
 8000aee:	b084      	sub	sp, #16
 8000af0:	af00      	add	r7, sp, #0
 8000af2:	4603      	mov	r3, r0
 8000af4:	71fb      	strb	r3, [r7, #7]
 8000af6:	460b      	mov	r3, r1
 8000af8:	80bb      	strh	r3, [r7, #4]
 8000afa:	4613      	mov	r3, r2
 8000afc:	807b      	strh	r3, [r7, #2]
	//draw single screen digit in digital clock style
	 uint8_t statusByte=castCharToByte(num);
 8000afe:	79fb      	ldrb	r3, [r7, #7]
 8000b00:	4618      	mov	r0, r3
 8000b02:	f000 f8d3 	bl	8000cac <castCharToByte>
 8000b06:	4603      	mov	r3, r0
 8000b08:	73fb      	strb	r3, [r7, #15]
	 draw_statusByte(statusByte,x,y);
 8000b0a:	887a      	ldrh	r2, [r7, #2]
 8000b0c:	88b9      	ldrh	r1, [r7, #4]
 8000b0e:	7bfb      	ldrb	r3, [r7, #15]
 8000b10:	4618      	mov	r0, r3
 8000b12:	f000 f805 	bl	8000b20 <draw_statusByte>

}
 8000b16:	bf00      	nop
 8000b18:	3710      	adds	r7, #16
 8000b1a:	46bd      	mov	sp, r7
 8000b1c:	bd80      	pop	{r7, pc}
	...

08000b20 <draw_statusByte>:

void draw_statusByte(uint8_t statusByte, uint16_t x, uint16_t y){
 8000b20:	b590      	push	{r4, r7, lr}
 8000b22:	b087      	sub	sp, #28
 8000b24:	af02      	add	r7, sp, #8
 8000b26:	4603      	mov	r3, r0
 8000b28:	71fb      	strb	r3, [r7, #7]
 8000b2a:	460b      	mov	r3, r1
 8000b2c:	80bb      	strh	r3, [r7, #4]
 8000b2e:	4613      	mov	r3, r2
 8000b30:	807b      	strh	r3, [r7, #2]
	uint8_t thick = LCD_OPT.thickness;
 8000b32:	4b5d      	ldr	r3, [pc, #372]	@ (8000ca8 <draw_statusByte+0x188>)
 8000b34:	7a1b      	ldrb	r3, [r3, #8]
 8000b36:	73fb      	strb	r3, [r7, #15]
	uint8_t width = LCD_OPT.width;
 8000b38:	4b5b      	ldr	r3, [pc, #364]	@ (8000ca8 <draw_statusByte+0x188>)
 8000b3a:	7adb      	ldrb	r3, [r3, #11]
 8000b3c:	73bb      	strb	r3, [r7, #14]
	uint8_t half_height = LCD_OPT.height>>1;
 8000b3e:	4b5a      	ldr	r3, [pc, #360]	@ (8000ca8 <draw_statusByte+0x188>)
 8000b40:	7a9b      	ldrb	r3, [r3, #10]
 8000b42:	085b      	lsrs	r3, r3, #1
 8000b44:	737b      	strb	r3, [r7, #13]
	 //	 _
	 // |_|
	 // |_x
	 // ----->
	 if(statusByte & (1U << 0)) rectangle(x,y,thick,half_height,LCD_OPT.color);
 8000b46:	79fb      	ldrb	r3, [r7, #7]
 8000b48:	f003 0301 	and.w	r3, r3, #1
 8000b4c:	2b00      	cmp	r3, #0
 8000b4e:	d00b      	beq.n	8000b68 <draw_statusByte+0x48>
 8000b50:	7bfb      	ldrb	r3, [r7, #15]
 8000b52:	b29a      	uxth	r2, r3
 8000b54:	7b7b      	ldrb	r3, [r7, #13]
 8000b56:	b29c      	uxth	r4, r3
 8000b58:	4b53      	ldr	r3, [pc, #332]	@ (8000ca8 <draw_statusByte+0x188>)
 8000b5a:	881b      	ldrh	r3, [r3, #0]
 8000b5c:	8879      	ldrh	r1, [r7, #2]
 8000b5e:	88b8      	ldrh	r0, [r7, #4]
 8000b60:	9300      	str	r3, [sp, #0]
 8000b62:	4623      	mov	r3, r4
 8000b64:	f7ff fd1a 	bl	800059c <rectangle>
	 //	 _
	 // |_x
	 // |_|
	 // ----->
	 if(statusByte & (1U << 1)) rectangle(x,y+half_height,thick,half_height,LCD_OPT.color);
 8000b68:	79fb      	ldrb	r3, [r7, #7]
 8000b6a:	f003 0302 	and.w	r3, r3, #2
 8000b6e:	2b00      	cmp	r3, #0
 8000b70:	d00f      	beq.n	8000b92 <draw_statusByte+0x72>
 8000b72:	7b7b      	ldrb	r3, [r7, #13]
 8000b74:	b29a      	uxth	r2, r3
 8000b76:	887b      	ldrh	r3, [r7, #2]
 8000b78:	4413      	add	r3, r2
 8000b7a:	b299      	uxth	r1, r3
 8000b7c:	7bfb      	ldrb	r3, [r7, #15]
 8000b7e:	b29a      	uxth	r2, r3
 8000b80:	7b7b      	ldrb	r3, [r7, #13]
 8000b82:	b29c      	uxth	r4, r3
 8000b84:	4b48      	ldr	r3, [pc, #288]	@ (8000ca8 <draw_statusByte+0x188>)
 8000b86:	881b      	ldrh	r3, [r3, #0]
 8000b88:	88b8      	ldrh	r0, [r7, #4]
 8000b8a:	9300      	str	r3, [sp, #0]
 8000b8c:	4623      	mov	r3, r4
 8000b8e:	f7ff fd05 	bl	800059c <rectangle>
	 //	 x
	 // |_|
	 // |_|
	 //------>
	 if(statusByte & (1U << 2) )rectangle(x,y+2*half_height-thick,width+thick,thick,LCD_OPT.color);
 8000b92:	79fb      	ldrb	r3, [r7, #7]
 8000b94:	f003 0304 	and.w	r3, r3, #4
 8000b98:	2b00      	cmp	r3, #0
 8000b9a:	d019      	beq.n	8000bd0 <draw_statusByte+0xb0>
 8000b9c:	7b7b      	ldrb	r3, [r7, #13]
 8000b9e:	b29b      	uxth	r3, r3
 8000ba0:	005b      	lsls	r3, r3, #1
 8000ba2:	b29a      	uxth	r2, r3
 8000ba4:	887b      	ldrh	r3, [r7, #2]
 8000ba6:	4413      	add	r3, r2
 8000ba8:	b29a      	uxth	r2, r3
 8000baa:	7bfb      	ldrb	r3, [r7, #15]
 8000bac:	b29b      	uxth	r3, r3
 8000bae:	1ad3      	subs	r3, r2, r3
 8000bb0:	b299      	uxth	r1, r3
 8000bb2:	7bbb      	ldrb	r3, [r7, #14]
 8000bb4:	b29a      	uxth	r2, r3
 8000bb6:	7bfb      	ldrb	r3, [r7, #15]
 8000bb8:	b29b      	uxth	r3, r3
 8000bba:	4413      	add	r3, r2
 8000bbc:	b29a      	uxth	r2, r3
 8000bbe:	7bfb      	ldrb	r3, [r7, #15]
 8000bc0:	b29c      	uxth	r4, r3
 8000bc2:	4b39      	ldr	r3, [pc, #228]	@ (8000ca8 <draw_statusByte+0x188>)
 8000bc4:	881b      	ldrh	r3, [r3, #0]
 8000bc6:	88b8      	ldrh	r0, [r7, #4]
 8000bc8:	9300      	str	r3, [sp, #0]
 8000bca:	4623      	mov	r3, r4
 8000bcc:	f7ff fce6 	bl	800059c <rectangle>
	 //	 _
	 // x_|
	 // |_|
	 //------>
	 if(statusByte & (1U << 3)) rectangle(x+width,y+half_height,thick,half_height,LCD_OPT.color);
 8000bd0:	79fb      	ldrb	r3, [r7, #7]
 8000bd2:	f003 0308 	and.w	r3, r3, #8
 8000bd6:	2b00      	cmp	r3, #0
 8000bd8:	d013      	beq.n	8000c02 <draw_statusByte+0xe2>
 8000bda:	7bbb      	ldrb	r3, [r7, #14]
 8000bdc:	b29a      	uxth	r2, r3
 8000bde:	88bb      	ldrh	r3, [r7, #4]
 8000be0:	4413      	add	r3, r2
 8000be2:	b298      	uxth	r0, r3
 8000be4:	7b7b      	ldrb	r3, [r7, #13]
 8000be6:	b29a      	uxth	r2, r3
 8000be8:	887b      	ldrh	r3, [r7, #2]
 8000bea:	4413      	add	r3, r2
 8000bec:	b299      	uxth	r1, r3
 8000bee:	7bfb      	ldrb	r3, [r7, #15]
 8000bf0:	b29a      	uxth	r2, r3
 8000bf2:	7b7b      	ldrb	r3, [r7, #13]
 8000bf4:	b29c      	uxth	r4, r3
 8000bf6:	4b2c      	ldr	r3, [pc, #176]	@ (8000ca8 <draw_statusByte+0x188>)
 8000bf8:	881b      	ldrh	r3, [r3, #0]
 8000bfa:	9300      	str	r3, [sp, #0]
 8000bfc:	4623      	mov	r3, r4
 8000bfe:	f7ff fccd 	bl	800059c <rectangle>

	//	_
	// |_|
	// x_|
	//----->
	 if(statusByte & (1U << 4)) rectangle(x+width,y,thick,half_height+thick/2,LCD_OPT.color);
 8000c02:	79fb      	ldrb	r3, [r7, #7]
 8000c04:	f003 0310 	and.w	r3, r3, #16
 8000c08:	2b00      	cmp	r3, #0
 8000c0a:	d015      	beq.n	8000c38 <draw_statusByte+0x118>
 8000c0c:	7bbb      	ldrb	r3, [r7, #14]
 8000c0e:	b29a      	uxth	r2, r3
 8000c10:	88bb      	ldrh	r3, [r7, #4]
 8000c12:	4413      	add	r3, r2
 8000c14:	b298      	uxth	r0, r3
 8000c16:	7bfb      	ldrb	r3, [r7, #15]
 8000c18:	b29c      	uxth	r4, r3
 8000c1a:	7b7b      	ldrb	r3, [r7, #13]
 8000c1c:	b29b      	uxth	r3, r3
 8000c1e:	7bfa      	ldrb	r2, [r7, #15]
 8000c20:	0852      	lsrs	r2, r2, #1
 8000c22:	b2d2      	uxtb	r2, r2
 8000c24:	4413      	add	r3, r2
 8000c26:	b29a      	uxth	r2, r3
 8000c28:	4b1f      	ldr	r3, [pc, #124]	@ (8000ca8 <draw_statusByte+0x188>)
 8000c2a:	881b      	ldrh	r3, [r3, #0]
 8000c2c:	8879      	ldrh	r1, [r7, #2]
 8000c2e:	9300      	str	r3, [sp, #0]
 8000c30:	4613      	mov	r3, r2
 8000c32:	4622      	mov	r2, r4
 8000c34:	f7ff fcb2 	bl	800059c <rectangle>

	 //	 _
	 // |_|
	 // |x|
	 //------>
	 if(statusByte & (1U << 5)) rectangle(x,y,width+thick,thick,LCD_OPT.color);
 8000c38:	79fb      	ldrb	r3, [r7, #7]
 8000c3a:	f003 0320 	and.w	r3, r3, #32
 8000c3e:	2b00      	cmp	r3, #0
 8000c40:	d00f      	beq.n	8000c62 <draw_statusByte+0x142>
 8000c42:	7bbb      	ldrb	r3, [r7, #14]
 8000c44:	b29a      	uxth	r2, r3
 8000c46:	7bfb      	ldrb	r3, [r7, #15]
 8000c48:	b29b      	uxth	r3, r3
 8000c4a:	4413      	add	r3, r2
 8000c4c:	b29a      	uxth	r2, r3
 8000c4e:	7bfb      	ldrb	r3, [r7, #15]
 8000c50:	b29c      	uxth	r4, r3
 8000c52:	4b15      	ldr	r3, [pc, #84]	@ (8000ca8 <draw_statusByte+0x188>)
 8000c54:	881b      	ldrh	r3, [r3, #0]
 8000c56:	8879      	ldrh	r1, [r7, #2]
 8000c58:	88b8      	ldrh	r0, [r7, #4]
 8000c5a:	9300      	str	r3, [sp, #0]
 8000c5c:	4623      	mov	r3, r4
 8000c5e:	f7ff fc9d 	bl	800059c <rectangle>
	 //	 _
	 // |x|
	 // |_|
	 //----->
	 if(statusByte & (1U << 6)) rectangle(x,y+half_height-thick/2,width+thick,thick,LCD_OPT.color);
 8000c62:	79fb      	ldrb	r3, [r7, #7]
 8000c64:	f003 0340 	and.w	r3, r3, #64	@ 0x40
 8000c68:	2b00      	cmp	r3, #0
 8000c6a:	d019      	beq.n	8000ca0 <draw_statusByte+0x180>
 8000c6c:	7b7b      	ldrb	r3, [r7, #13]
 8000c6e:	b29a      	uxth	r2, r3
 8000c70:	887b      	ldrh	r3, [r7, #2]
 8000c72:	4413      	add	r3, r2
 8000c74:	b29b      	uxth	r3, r3
 8000c76:	7bfa      	ldrb	r2, [r7, #15]
 8000c78:	0852      	lsrs	r2, r2, #1
 8000c7a:	b2d2      	uxtb	r2, r2
 8000c7c:	1a9b      	subs	r3, r3, r2
 8000c7e:	b299      	uxth	r1, r3
 8000c80:	7bbb      	ldrb	r3, [r7, #14]
 8000c82:	b29a      	uxth	r2, r3
 8000c84:	7bfb      	ldrb	r3, [r7, #15]
 8000c86:	b29b      	uxth	r3, r3
 8000c88:	4413      	add	r3, r2
 8000c8a:	b29a      	uxth	r2, r3
 8000c8c:	7bfb      	ldrb	r3, [r7, #15]
 8000c8e:	b29c      	uxth	r4, r3
 8000c90:	4b05      	ldr	r3, [pc, #20]	@ (8000ca8 <draw_statusByte+0x188>)
 8000c92:	881b      	ldrh	r3, [r3, #0]
 8000c94:	88b8      	ldrh	r0, [r7, #4]
 8000c96:	9300      	str	r3, [sp, #0]
 8000c98:	4623      	mov	r3, r4
 8000c9a:	f7ff fc7f 	bl	800059c <rectangle>
	 return;
 8000c9e:	bf00      	nop
 8000ca0:	bf00      	nop

}
 8000ca2:	3714      	adds	r7, #20
 8000ca4:	46bd      	mov	sp, r7
 8000ca6:	bd90      	pop	{r4, r7, pc}
 8000ca8:	20000018 	.word	0x20000018

08000cac <castCharToByte>:
    buffer= '0' + (input % 10);
    return buffer;

}

uint8_t castCharToByte(char num){
 8000cac:	b480      	push	{r7}
 8000cae:	b085      	sub	sp, #20
 8000cb0:	af00      	add	r7, sp, #0
 8000cb2:	4603      	mov	r3, r0
 8000cb4:	71fb      	strb	r3, [r7, #7]

	 uint8_t statusByte=0b11110111;
 8000cb6:	23f7      	movs	r3, #247	@ 0xf7
 8000cb8:	73fb      	strb	r3, [r7, #15]
	 switch (num){
 8000cba:	79fb      	ldrb	r3, [r7, #7]
 8000cbc:	3b30      	subs	r3, #48	@ 0x30
 8000cbe:	2b09      	cmp	r3, #9
 8000cc0:	d834      	bhi.n	8000d2c <castCharToByte+0x80>
 8000cc2:	a201      	add	r2, pc, #4	@ (adr r2, 8000cc8 <castCharToByte+0x1c>)
 8000cc4:	f852 f023 	ldr.w	pc, [r2, r3, lsl #2]
 8000cc8:	08000cf1 	.word	0x08000cf1
 8000ccc:	08000cf7 	.word	0x08000cf7
 8000cd0:	08000cfd 	.word	0x08000cfd
 8000cd4:	08000d03 	.word	0x08000d03
 8000cd8:	08000d09 	.word	0x08000d09
 8000cdc:	08000d0f 	.word	0x08000d0f
 8000ce0:	08000d15 	.word	0x08000d15
 8000ce4:	08000d1b 	.word	0x08000d1b
 8000ce8:	08000d21 	.word	0x08000d21
 8000cec:	08000d27 	.word	0x08000d27
	 	case '0': statusByte = 0b00111111;break;
 8000cf0:	233f      	movs	r3, #63	@ 0x3f
 8000cf2:	73fb      	strb	r3, [r7, #15]
 8000cf4:	e01a      	b.n	8000d2c <castCharToByte+0x80>
	 	case '1': statusByte = 0b00000011;break;
 8000cf6:	2303      	movs	r3, #3
 8000cf8:	73fb      	strb	r3, [r7, #15]
 8000cfa:	e017      	b.n	8000d2c <castCharToByte+0x80>
	 	case '2': statusByte = 0b01110110;break;
 8000cfc:	2376      	movs	r3, #118	@ 0x76
 8000cfe:	73fb      	strb	r3, [r7, #15]
 8000d00:	e014      	b.n	8000d2c <castCharToByte+0x80>
	 	case '3': statusByte = 0b01100111;break;
 8000d02:	2367      	movs	r3, #103	@ 0x67
 8000d04:	73fb      	strb	r3, [r7, #15]
 8000d06:	e011      	b.n	8000d2c <castCharToByte+0x80>
	 	case '4': statusByte = 0b01001011;break;
 8000d08:	234b      	movs	r3, #75	@ 0x4b
 8000d0a:	73fb      	strb	r3, [r7, #15]
 8000d0c:	e00e      	b.n	8000d2c <castCharToByte+0x80>
	    case '5': statusByte = 0b01101101;break;
 8000d0e:	236d      	movs	r3, #109	@ 0x6d
 8000d10:	73fb      	strb	r3, [r7, #15]
 8000d12:	e00b      	b.n	8000d2c <castCharToByte+0x80>
	    case '6': statusByte = 0b01111101;break;
 8000d14:	237d      	movs	r3, #125	@ 0x7d
 8000d16:	73fb      	strb	r3, [r7, #15]
 8000d18:	e008      	b.n	8000d2c <castCharToByte+0x80>
	   	case '7': statusByte = 0b00000111;break;
 8000d1a:	2307      	movs	r3, #7
 8000d1c:	73fb      	strb	r3, [r7, #15]
 8000d1e:	e005      	b.n	8000d2c <castCharToByte+0x80>
	   	case '8': statusByte = 0b01111111;break;
 8000d20:	237f      	movs	r3, #127	@ 0x7f
 8000d22:	73fb      	strb	r3, [r7, #15]
 8000d24:	e002      	b.n	8000d2c <castCharToByte+0x80>
	   	case '9': statusByte = 0b01101111;break;
 8000d26:	236f      	movs	r3, #111	@ 0x6f
 8000d28:	73fb      	strb	r3, [r7, #15]
 8000d2a:	bf00      	nop
	 }
	 return statusByte;
 8000d2c:	7bfb      	ldrb	r3, [r7, #15]
}
 8000d2e:	4618      	mov	r0, r3
 8000d30:	3714      	adds	r7, #20
 8000d32:	46bd      	mov	sp, r7
 8000d34:	f85d 7b04 	ldr.w	r7, [sp], #4
 8000d38:	4770      	bx	lr
 8000d3a:	bf00      	nop

08000d3c <debugSineCosine>:
		systick_msec_sleep(150);
		eraseDigit_LCD(castInt8ToChar(n),140,100);
}
}

void debugSineCosine(void){
 8000d3c:	b580      	push	{r7, lr}
 8000d3e:	b084      	sub	sp, #16
 8000d40:	af02      	add	r7, sp, #8

fullScreenColor(COLOR16_WHITE);
 8000d42:	f64f 70ff 	movw	r0, #65535	@ 0xffff
 8000d46:	f000 f921 	bl	8000f8c <fullScreenColor>
for (uint16_t i=0;i<240;i+=1){
 8000d4a:	2300      	movs	r3, #0
 8000d4c:	80fb      	strh	r3, [r7, #6]
 8000d4e:	e02c      	b.n	8000daa <debugSineCosine+0x6e>
	rectangle(i,105+((sin_deg(i*2))>>2),3,3,COLOR16_GREEN);
 8000d50:	88fb      	ldrh	r3, [r7, #6]
 8000d52:	005b      	lsls	r3, r3, #1
 8000d54:	b29b      	uxth	r3, r3
 8000d56:	b21b      	sxth	r3, r3
 8000d58:	4618      	mov	r0, r3
 8000d5a:	f7ff fdab 	bl	80008b4 <sin_deg>
 8000d5e:	4603      	mov	r3, r0
 8000d60:	109b      	asrs	r3, r3, #2
 8000d62:	b21b      	sxth	r3, r3
 8000d64:	b29b      	uxth	r3, r3
 8000d66:	3369      	adds	r3, #105	@ 0x69
 8000d68:	b299      	uxth	r1, r3
 8000d6a:	88f8      	ldrh	r0, [r7, #6]
 8000d6c:	f44f 53f8 	mov.w	r3, #7936	@ 0x1f00
 8000d70:	9300      	str	r3, [sp, #0]
 8000d72:	2303      	movs	r3, #3
 8000d74:	2203      	movs	r2, #3
 8000d76:	f7ff fc11 	bl	800059c <rectangle>
	rectangle(i,105+((cos_deg(i*2))>>2),3,3,COLOR16_RED);
 8000d7a:	88fb      	ldrh	r3, [r7, #6]
 8000d7c:	005b      	lsls	r3, r3, #1
 8000d7e:	b29b      	uxth	r3, r3
 8000d80:	b21b      	sxth	r3, r3
 8000d82:	4618      	mov	r0, r3
 8000d84:	f7ff fe06 	bl	8000994 <cos_deg>
 8000d88:	4603      	mov	r3, r0
 8000d8a:	109b      	asrs	r3, r3, #2
 8000d8c:	b21b      	sxth	r3, r3
 8000d8e:	b29b      	uxth	r3, r3
 8000d90:	3369      	adds	r3, #105	@ 0x69
 8000d92:	b299      	uxth	r1, r3
 8000d94:	88f8      	ldrh	r0, [r7, #6]
 8000d96:	f44f 4378 	mov.w	r3, #63488	@ 0xf800
 8000d9a:	9300      	str	r3, [sp, #0]
 8000d9c:	2303      	movs	r3, #3
 8000d9e:	2203      	movs	r2, #3
 8000da0:	f7ff fbfc 	bl	800059c <rectangle>
for (uint16_t i=0;i<240;i+=1){
 8000da4:	88fb      	ldrh	r3, [r7, #6]
 8000da6:	3301      	adds	r3, #1
 8000da8:	80fb      	strh	r3, [r7, #6]
 8000daa:	88fb      	ldrh	r3, [r7, #6]
 8000dac:	2bef      	cmp	r3, #239	@ 0xef
 8000dae:	d9cf      	bls.n	8000d50 <debugSineCosine+0x14>
}
graphicsInit(COLOR16_BLUE,COLOR16_WHITE,5);
 8000db0:	2205      	movs	r2, #5
 8000db2:	f64f 71ff 	movw	r1, #65535	@ 0xffff
 8000db6:	20fd      	movs	r0, #253	@ 0xfd
 8000db8:	f7ff facc 	bl	8000354 <graphicsInit>

for (uint16_t phi=0;phi<=360;phi+=45){
 8000dbc:	2300      	movs	r3, #0
 8000dbe:	80bb      	strh	r3, [r7, #4]
 8000dc0:	e008      	b.n	8000dd4 <debugSineCosine+0x98>
		drawLine(155,165,40,phi);
 8000dc2:	88bb      	ldrh	r3, [r7, #4]
 8000dc4:	2228      	movs	r2, #40	@ 0x28
 8000dc6:	21a5      	movs	r1, #165	@ 0xa5
 8000dc8:	209b      	movs	r0, #155	@ 0x9b
 8000dca:	f7ff fdff 	bl	80009cc <drawLine>
for (uint16_t phi=0;phi<=360;phi+=45){
 8000dce:	88bb      	ldrh	r3, [r7, #4]
 8000dd0:	332d      	adds	r3, #45	@ 0x2d
 8000dd2:	80bb      	strh	r3, [r7, #4]
 8000dd4:	88bb      	ldrh	r3, [r7, #4]
 8000dd6:	f5b3 7fb4 	cmp.w	r3, #360	@ 0x168
 8000dda:	d9f2      	bls.n	8000dc2 <debugSineCosine+0x86>
	}
textInit(1, COLOR16_BLACK, COLOR16_WHITE);
 8000ddc:	f64f 72ff 	movw	r2, #65535	@ 0xffff
 8000de0:	2100      	movs	r1, #0
 8000de2:	2001      	movs	r0, #1
 8000de4:	f7ff fa9c 	bl	8000320 <textInit>
writeWord("STEFANS PROJEKT",215,10,COLOR16_BLACK);
 8000de8:	2300      	movs	r3, #0
 8000dea:	220a      	movs	r2, #10
 8000dec:	21d7      	movs	r1, #215	@ 0xd7
 8000dee:	4803      	ldr	r0, [pc, #12]	@ (8000dfc <debugSineCosine+0xc0>)
 8000df0:	f7ff fd02 	bl	80007f8 <writeWord>
	}
 8000df4:	bf00      	nop
 8000df6:	3708      	adds	r7, #8
 8000df8:	46bd      	mov	sp, r7
 8000dfa:	bd80      	pop	{r7, pc}
 8000dfc:	08001aec 	.word	0x08001aec

08000e00 <sendCommand>:

static uint16_t lineBuffer[DISPLAY_X_MAX];
static bool singleColorStatus;

void sendCommand(uint8_t commandByte, const uint8_t *dataBytes,
                                  uint8_t numDataBytes) {
 8000e00:	b580      	push	{r7, lr}
 8000e02:	b082      	sub	sp, #8
 8000e04:	af00      	add	r7, sp, #0
 8000e06:	4603      	mov	r3, r0
 8000e08:	6039      	str	r1, [r7, #0]
 8000e0a:	71fb      	strb	r3, [r7, #7]
 8000e0c:	4613      	mov	r3, r2
 8000e0e:	71bb      	strb	r3, [r7, #6]
	/*8 bit method, not working in 16 bit mode*/
	spi1_set8();
 8000e10:	f000 fc9c 	bl	800174c <spi1_set8>
	cs_enable();
 8000e14:	f000 fab0 	bl	8001378 <cs_enable>
	tft_dc_low();
 8000e18:	f000 face 	bl	80013b8 <tft_dc_low>
	spi1_transmit(&commandByte,1); // Send the command byte
 8000e1c:	1dfb      	adds	r3, r7, #7
 8000e1e:	2101      	movs	r1, #1
 8000e20:	4618      	mov	r0, r3
 8000e22:	f000 fbf1 	bl	8001608 <spi1_transmit>
	tft_dc_high();
 8000e26:	f000 fad7 	bl	80013d8 <tft_dc_high>
	if (numDataBytes >0 && dataBytes!=NULL){
 8000e2a:	79bb      	ldrb	r3, [r7, #6]
 8000e2c:	2b00      	cmp	r3, #0
 8000e2e:	d007      	beq.n	8000e40 <sendCommand+0x40>
 8000e30:	683b      	ldr	r3, [r7, #0]
 8000e32:	2b00      	cmp	r3, #0
 8000e34:	d004      	beq.n	8000e40 <sendCommand+0x40>
		spi1_transmit(dataBytes,numDataBytes);
 8000e36:	79bb      	ldrb	r3, [r7, #6]
 8000e38:	4619      	mov	r1, r3
 8000e3a:	6838      	ldr	r0, [r7, #0]
 8000e3c:	f000 fbe4 	bl	8001608 <spi1_transmit>
	}
	cs_disable();
 8000e40:	f000 faaa 	bl	8001398 <cs_disable>
	spi1_set16();
 8000e44:	f000 fc72 	bl	800172c <spi1_set16>

}
 8000e48:	bf00      	nop
 8000e4a:	3708      	adds	r7, #8
 8000e4c:	46bd      	mov	sp, r7
 8000e4e:	bd80      	pop	{r7, pc}

08000e50 <sendCommand16>:

void sendCommand16(uint16_t commandByte, const uint16_t *dataBytes,
                                  uint16_t numDataBytes) {
 8000e50:	b580      	push	{r7, lr}
 8000e52:	b082      	sub	sp, #8
 8000e54:	af00      	add	r7, sp, #0
 8000e56:	4603      	mov	r3, r0
 8000e58:	6039      	str	r1, [r7, #0]
 8000e5a:	80fb      	strh	r3, [r7, #6]
 8000e5c:	4613      	mov	r3, r2
 8000e5e:	80bb      	strh	r3, [r7, #4]
	cs_enable();
 8000e60:	f000 fa8a 	bl	8001378 <cs_enable>
	tft_dc_low();
 8000e64:	f000 faa8 	bl	80013b8 <tft_dc_low>
	spi1_transmit16(&commandByte,1); // Send the command byte
 8000e68:	1dbb      	adds	r3, r7, #6
 8000e6a:	2101      	movs	r1, #1
 8000e6c:	4618      	mov	r0, r3
 8000e6e:	f000 fc09 	bl	8001684 <spi1_transmit16>
	tft_dc_high();
 8000e72:	f000 fab1 	bl	80013d8 <tft_dc_high>
	if (numDataBytes >0 && dataBytes!=NULL){
 8000e76:	88bb      	ldrh	r3, [r7, #4]
 8000e78:	2b00      	cmp	r3, #0
 8000e7a:	d007      	beq.n	8000e8c <sendCommand16+0x3c>
 8000e7c:	683b      	ldr	r3, [r7, #0]
 8000e7e:	2b00      	cmp	r3, #0
 8000e80:	d004      	beq.n	8000e8c <sendCommand16+0x3c>
		spi1_transmit16(dataBytes,numDataBytes);
 8000e82:	88bb      	ldrh	r3, [r7, #4]
 8000e84:	4619      	mov	r1, r3
 8000e86:	6838      	ldr	r0, [r7, #0]
 8000e88:	f000 fbfc 	bl	8001684 <spi1_transmit16>
	}
	cs_disable();
 8000e8c:	f000 fa84 	bl	8001398 <cs_disable>

}
 8000e90:	bf00      	nop
 8000e92:	3708      	adds	r7, #8
 8000e94:	46bd      	mov	sp, r7
 8000e96:	bd80      	pop	{r7, pc}

08000e98 <sbc_lcd01_init>:

/*from adafruit_ST77cc.cpp*/
void sbc_lcd01_init(){
 8000e98:	b580      	push	{r7, lr}
 8000e9a:	b082      	sub	sp, #8
 8000e9c:	af00      	add	r7, sp, #0
		uint8_t init_delay = 5;
 8000e9e:	2305      	movs	r3, #5
 8000ea0:	71fb      	strb	r3, [r7, #7]
		spi_gpio_init();
 8000ea2:	f000 fac1 	bl	8001428 <spi_gpio_init>
		systick_msec_sleep(init_delay);
 8000ea6:	79fb      	ldrb	r3, [r7, #7]
 8000ea8:	4618      	mov	r0, r3
 8000eaa:	f000 fd87 	bl	80019bc <systick_msec_sleep>
		displayReset();
 8000eae:	f000 fa4d 	bl	800134c <displayReset>
		systick_msec_sleep(init_delay);
 8000eb2:	79fb      	ldrb	r3, [r7, #7]
 8000eb4:	4618      	mov	r0, r3
 8000eb6:	f000 fd81 	bl	80019bc <systick_msec_sleep>
		spi1_config();
 8000eba:	f000 fb4b 	bl	8001554 <spi1_config>
		systick_msec_sleep(init_delay);
 8000ebe:	79fb      	ldrb	r3, [r7, #7]
 8000ec0:	4618      	mov	r0, r3
 8000ec2:	f000 fd7b 	bl	80019bc <systick_msec_sleep>
		spi_dma_init(windowBuffer);
 8000ec6:	480d      	ldr	r0, [pc, #52]	@ (8000efc <sbc_lcd01_init+0x64>)
 8000ec8:	f000 fc50 	bl	800176c <spi_dma_init>
		systick_msec_sleep(init_delay);
 8000ecc:	79fb      	ldrb	r3, [r7, #7]
 8000ece:	4618      	mov	r0, r3
 8000ed0:	f000 fd74 	bl	80019bc <systick_msec_sleep>
		displayInit(generic_st7789);
 8000ed4:	480a      	ldr	r0, [pc, #40]	@ (8000f00 <sbc_lcd01_init+0x68>)
 8000ed6:	f000 f815 	bl	8000f04 <displayInit>
		systick_msec_sleep(init_delay);
 8000eda:	79fb      	ldrb	r3, [r7, #7]
 8000edc:	4618      	mov	r0, r3
 8000ede:	f000 fd6d 	bl	80019bc <systick_msec_sleep>
		spi1_set16();
 8000ee2:	f000 fc23 	bl	800172c <spi1_set16>
		systick_msec_sleep(init_delay);
 8000ee6:	79fb      	ldrb	r3, [r7, #7]
 8000ee8:	4618      	mov	r0, r3
 8000eea:	f000 fd67 	bl	80019bc <systick_msec_sleep>
		exti_init();
 8000eee:	f7ff f991 	bl	8000214 <exti_init>
	}
 8000ef2:	bf00      	nop
 8000ef4:	3708      	adds	r7, #8
 8000ef6:	46bd      	mov	sp, r7
 8000ef8:	bd80      	pop	{r7, pc}
 8000efa:	bf00      	nop
 8000efc:	200000d0 	.word	0x200000d0
 8000f00:	08001f08 	.word	0x08001f08

08000f04 <displayInit>:

void displayInit(const uint8_t *addr) {
 8000f04:	b580      	push	{r7, lr}
 8000f06:	b084      	sub	sp, #16
 8000f08:	af00      	add	r7, sp, #0
 8000f0a:	6078      	str	r0, [r7, #4]
/*Interpreter for Display init Array*/
  uint8_t numCommands, cmd, numArgs;
  uint16_t ms;

  numCommands = *addr++; // Number of commands to follow
 8000f0c:	687b      	ldr	r3, [r7, #4]
 8000f0e:	1c5a      	adds	r2, r3, #1
 8000f10:	607a      	str	r2, [r7, #4]
 8000f12:	781b      	ldrb	r3, [r3, #0]
 8000f14:	73fb      	strb	r3, [r7, #15]
  while (numCommands--) {              // For each command...
 8000f16:	e02e      	b.n	8000f76 <displayInit+0x72>
    cmd = *addr++;       // Read command
 8000f18:	687b      	ldr	r3, [r7, #4]
 8000f1a:	1c5a      	adds	r2, r3, #1
 8000f1c:	607a      	str	r2, [r7, #4]
 8000f1e:	781b      	ldrb	r3, [r3, #0]
 8000f20:	72fb      	strb	r3, [r7, #11]
    numArgs = *addr++;   // Number of args to follow
 8000f22:	687b      	ldr	r3, [r7, #4]
 8000f24:	1c5a      	adds	r2, r3, #1
 8000f26:	607a      	str	r2, [r7, #4]
 8000f28:	781b      	ldrb	r3, [r3, #0]
 8000f2a:	72bb      	strb	r3, [r7, #10]
    ms = numArgs & ST_CMD_DELAY;       // If hibit set, delay follows args
 8000f2c:	7abb      	ldrb	r3, [r7, #10]
 8000f2e:	b29b      	uxth	r3, r3
 8000f30:	f003 0380 	and.w	r3, r3, #128	@ 0x80
 8000f34:	81bb      	strh	r3, [r7, #12]
    numArgs &= ~ST_CMD_DELAY;          // Mask out delay bit
 8000f36:	7abb      	ldrb	r3, [r7, #10]
 8000f38:	f003 037f 	and.w	r3, r3, #127	@ 0x7f
 8000f3c:	72bb      	strb	r3, [r7, #10]
    //spi1_transmit(cmd,1);
    sendCommand(cmd, addr, numArgs);
 8000f3e:	7aba      	ldrb	r2, [r7, #10]
 8000f40:	7afb      	ldrb	r3, [r7, #11]
 8000f42:	6879      	ldr	r1, [r7, #4]
 8000f44:	4618      	mov	r0, r3
 8000f46:	f7ff ff5b 	bl	8000e00 <sendCommand>
    addr += numArgs;
 8000f4a:	7abb      	ldrb	r3, [r7, #10]
 8000f4c:	687a      	ldr	r2, [r7, #4]
 8000f4e:	4413      	add	r3, r2
 8000f50:	607b      	str	r3, [r7, #4]

    if (ms) {
 8000f52:	89bb      	ldrh	r3, [r7, #12]
 8000f54:	2b00      	cmp	r3, #0
 8000f56:	d00e      	beq.n	8000f76 <displayInit+0x72>
      ms = *addr++; // Read post-command delay time (ms)
 8000f58:	687b      	ldr	r3, [r7, #4]
 8000f5a:	1c5a      	adds	r2, r3, #1
 8000f5c:	607a      	str	r2, [r7, #4]
 8000f5e:	781b      	ldrb	r3, [r3, #0]
 8000f60:	81bb      	strh	r3, [r7, #12]
      if (ms == 255)
 8000f62:	89bb      	ldrh	r3, [r7, #12]
 8000f64:	2bff      	cmp	r3, #255	@ 0xff
 8000f66:	d102      	bne.n	8000f6e <displayInit+0x6a>
        ms = 500; // If 255, delay for 500 ms
 8000f68:	f44f 73fa 	mov.w	r3, #500	@ 0x1f4
 8000f6c:	81bb      	strh	r3, [r7, #12]
      systick_msec_delay(ms);
 8000f6e:	89bb      	ldrh	r3, [r7, #12]
 8000f70:	4618      	mov	r0, r3
 8000f72:	f000 fcf3 	bl	800195c <systick_msec_delay>
  while (numCommands--) {              // For each command...
 8000f76:	7bfb      	ldrb	r3, [r7, #15]
 8000f78:	1e5a      	subs	r2, r3, #1
 8000f7a:	73fa      	strb	r2, [r7, #15]
 8000f7c:	2b00      	cmp	r3, #0
 8000f7e:	d1cb      	bne.n	8000f18 <displayInit+0x14>
    }
  }
}
 8000f80:	bf00      	nop
 8000f82:	bf00      	nop
 8000f84:	3710      	adds	r7, #16
 8000f86:	46bd      	mov	sp, r7
 8000f88:	bd80      	pop	{r7, pc}
	...

08000f8c <fullScreenColor>:

void fullScreenColor(uint16_t color){
 8000f8c:	b580      	push	{r7, lr}
 8000f8e:	b084      	sub	sp, #16
 8000f90:	af00      	add	r7, sp, #0
 8000f92:	4603      	mov	r3, r0
 8000f94:	80fb      	strh	r3, [r7, #6]
	setSingleColorStatus(1);
 8000f96:	2001      	movs	r0, #1
 8000f98:	f000 fa2e 	bl	80013f8 <setSingleColorStatus>
			initAdressWindow(0,0,DISPLAY_X_MAX,DISPLAY_Y_MAX);
 8000f9c:	23f1      	movs	r3, #241	@ 0xf1
 8000f9e:	22f0      	movs	r2, #240	@ 0xf0
 8000fa0:	2100      	movs	r1, #0
 8000fa2:	2000      	movs	r0, #0
 8000fa4:	f000 f978 	bl	8001298 <initAdressWindow>
			sendCommand16((uint16_t)ST77XX_RAMWR, NULL, 0);
 8000fa8:	2200      	movs	r2, #0
 8000faa:	2100      	movs	r1, #0
 8000fac:	202c      	movs	r0, #44	@ 0x2c
 8000fae:	f7ff ff4f 	bl	8000e50 <sendCommand16>
			tft_dc_high();
 8000fb2:	f000 fa11 	bl	80013d8 <tft_dc_high>
			//set first windowBuffer to color
			windowBuffer[0] =  color;
 8000fb6:	4a0a      	ldr	r2, [pc, #40]	@ (8000fe0 <fullScreenColor+0x54>)
 8000fb8:	88fb      	ldrh	r3, [r7, #6]
 8000fba:	8013      	strh	r3, [r2, #0]
			for (uint32_t line=0; line<DISPLAY_Y_MAX; line++){
 8000fbc:	2300      	movs	r3, #0
 8000fbe:	60fb      	str	r3, [r7, #12]
 8000fc0:	e005      	b.n	8000fce <fullScreenColor+0x42>
				spi1_transmit_DMA(DISPLAY_X_MAX);
 8000fc2:	20f0      	movs	r0, #240	@ 0xf0
 8000fc4:	f000 fc58 	bl	8001878 <spi1_transmit_DMA>
			for (uint32_t line=0; line<DISPLAY_Y_MAX; line++){
 8000fc8:	68fb      	ldr	r3, [r7, #12]
 8000fca:	3301      	adds	r3, #1
 8000fcc:	60fb      	str	r3, [r7, #12]
 8000fce:	68fb      	ldr	r3, [r7, #12]
 8000fd0:	2bf0      	cmp	r3, #240	@ 0xf0
 8000fd2:	d9f6      	bls.n	8000fc2 <fullScreenColor+0x36>
				}
			tft_dc_low();
 8000fd4:	f000 f9f0 	bl	80013b8 <tft_dc_low>
}
 8000fd8:	bf00      	nop
 8000fda:	3710      	adds	r7, #16
 8000fdc:	46bd      	mov	sp, r7
 8000fde:	bd80      	pop	{r7, pc}
 8000fe0:	200000d0 	.word	0x200000d0

08000fe4 <fillRectangle>:

void fillRectangle(uint16_t *buffer,int16_t x,int16_t y, uint8_t a, uint8_t b){
 8000fe4:	b580      	push	{r7, lr}
 8000fe6:	b086      	sub	sp, #24
 8000fe8:	af00      	add	r7, sp, #0
 8000fea:	60f8      	str	r0, [r7, #12]
 8000fec:	4608      	mov	r0, r1
 8000fee:	4611      	mov	r1, r2
 8000ff0:	461a      	mov	r2, r3
 8000ff2:	4603      	mov	r3, r0
 8000ff4:	817b      	strh	r3, [r7, #10]
 8000ff6:	460b      	mov	r3, r1
 8000ff8:	813b      	strh	r3, [r7, #8]
 8000ffa:	4613      	mov	r3, r2
 8000ffc:	71fb      	strb	r3, [r7, #7]
	//fills a rectangular screen area with the contents of *buffer

	setSingleColorStatus(0); //using buffer increment
 8000ffe:	2000      	movs	r0, #0
 8001000:	f000 f9fa 	bl	80013f8 <setSingleColorStatus>

	//crop logic
	int8_t cropOffset= 0;
 8001004:	2300      	movs	r3, #0
 8001006:	75fb      	strb	r3, [r7, #23]
	//check for completely out of bounds
	if((x+a<0) || (x >= DISPLAY_X_MAX ))return;
 8001008:	f9b7 200a 	ldrsh.w	r2, [r7, #10]
 800100c:	79fb      	ldrb	r3, [r7, #7]
 800100e:	4413      	add	r3, r2
 8001010:	2b00      	cmp	r3, #0
 8001012:	db65      	blt.n	80010e0 <fillRectangle+0xfc>
 8001014:	f9b7 300a 	ldrsh.w	r3, [r7, #10]
 8001018:	2bef      	cmp	r3, #239	@ 0xef
 800101a:	dc61      	bgt.n	80010e0 <fillRectangle+0xfc>
	if((y+b<0) || (y >= DISPLAY_Y_MAX ))return;
 800101c:	f9b7 2008 	ldrsh.w	r2, [r7, #8]
 8001020:	f897 3020 	ldrb.w	r3, [r7, #32]
 8001024:	4413      	add	r3, r2
 8001026:	2b00      	cmp	r3, #0
 8001028:	db5c      	blt.n	80010e4 <fillRectangle+0x100>
 800102a:	f9b7 3008 	ldrsh.w	r3, [r7, #8]
 800102e:	2bf0      	cmp	r3, #240	@ 0xf0
 8001030:	dc58      	bgt.n	80010e4 <fillRectangle+0x100>

	//check for partially out of bounds

	if(x<0){
 8001032:	f9b7 300a 	ldrsh.w	r3, [r7, #10]
 8001036:	2b00      	cmp	r3, #0
 8001038:	da08      	bge.n	800104c <fillRectangle+0x68>
		cropOffset=x;
 800103a:	897b      	ldrh	r3, [r7, #10]
 800103c:	75fb      	strb	r3, [r7, #23]
		a=a+x;
 800103e:	897b      	ldrh	r3, [r7, #10]
 8001040:	b2da      	uxtb	r2, r3
 8001042:	79fb      	ldrb	r3, [r7, #7]
 8001044:	4413      	add	r3, r2
 8001046:	71fb      	strb	r3, [r7, #7]
		x=0;
 8001048:	2300      	movs	r3, #0
 800104a:	817b      	strh	r3, [r7, #10]
	}

	if((x+a)>DISPLAY_X_MAX){
 800104c:	f9b7 200a 	ldrsh.w	r2, [r7, #10]
 8001050:	79fb      	ldrb	r3, [r7, #7]
 8001052:	4413      	add	r3, r2
 8001054:	2bf0      	cmp	r3, #240	@ 0xf0
 8001056:	dd0d      	ble.n	8001074 <fillRectangle+0x90>
		cropOffset=x+a-DISPLAY_X_MAX;
 8001058:	897b      	ldrh	r3, [r7, #10]
 800105a:	b2da      	uxtb	r2, r3
 800105c:	79fb      	ldrb	r3, [r7, #7]
 800105e:	4413      	add	r3, r2
 8001060:	b2db      	uxtb	r3, r3
 8001062:	3310      	adds	r3, #16
 8001064:	b2db      	uxtb	r3, r3
 8001066:	75fb      	strb	r3, [r7, #23]
		a=DISPLAY_X_MAX - x;
 8001068:	897b      	ldrh	r3, [r7, #10]
 800106a:	b2da      	uxtb	r2, r3
 800106c:	f06f 030f 	mvn.w	r3, #15
 8001070:	1a9b      	subs	r3, r3, r2
 8001072:	71fb      	strb	r3, [r7, #7]
	}

	//calculate total size to transmit
	uint16_t size = a*b;
 8001074:	79fb      	ldrb	r3, [r7, #7]
 8001076:	b29a      	uxth	r2, r3
 8001078:	f897 3020 	ldrb.w	r3, [r7, #32]
 800107c:	b29b      	uxth	r3, r3
 800107e:	fb12 f303 	smulbb	r3, r2, r3
 8001082:	827b      	strh	r3, [r7, #18]
	initAdressWindow(x, y, a, b);
 8001084:	8978      	ldrh	r0, [r7, #10]
 8001086:	8939      	ldrh	r1, [r7, #8]
 8001088:	79fb      	ldrb	r3, [r7, #7]
 800108a:	b29a      	uxth	r2, r3
 800108c:	f897 3020 	ldrb.w	r3, [r7, #32]
 8001090:	b29b      	uxth	r3, r3
 8001092:	f000 f901 	bl	8001298 <initAdressWindow>

	//fill windowBuffer
	if(cropOffset==0){
 8001096:	f997 3017 	ldrsb.w	r3, [r7, #23]
 800109a:	2b00      	cmp	r3, #0
 800109c:	d124      	bne.n	80010e8 <fillRectangle+0x104>
		//no cropping just write the buffer
	for (uint16_t i=0; i < size ;i++){
 800109e:	2300      	movs	r3, #0
 80010a0:	82bb      	strh	r3, [r7, #20]
 80010a2:	e00b      	b.n	80010bc <fillRectangle+0xd8>
			windowBuffer[i]=buffer[i];
 80010a4:	8abb      	ldrh	r3, [r7, #20]
 80010a6:	005b      	lsls	r3, r3, #1
 80010a8:	68fa      	ldr	r2, [r7, #12]
 80010aa:	441a      	add	r2, r3
 80010ac:	8abb      	ldrh	r3, [r7, #20]
 80010ae:	8811      	ldrh	r1, [r2, #0]
 80010b0:	4a0f      	ldr	r2, [pc, #60]	@ (80010f0 <fillRectangle+0x10c>)
 80010b2:	f822 1013 	strh.w	r1, [r2, r3, lsl #1]
	for (uint16_t i=0; i < size ;i++){
 80010b6:	8abb      	ldrh	r3, [r7, #20]
 80010b8:	3301      	adds	r3, #1
 80010ba:	82bb      	strh	r3, [r7, #20]
 80010bc:	8aba      	ldrh	r2, [r7, #20]
 80010be:	8a7b      	ldrh	r3, [r7, #18]
 80010c0:	429a      	cmp	r2, r3
 80010c2:	d3ef      	bcc.n	80010a4 <fillRectangle+0xc0>
		}}
	else {
		return; //not handled properly at the moment
		}
	//sending Data via DMA
	sendCommand16((uint16_t)ST77XX_RAMWR, NULL, 0);
 80010c4:	2200      	movs	r2, #0
 80010c6:	2100      	movs	r1, #0
 80010c8:	202c      	movs	r0, #44	@ 0x2c
 80010ca:	f7ff fec1 	bl	8000e50 <sendCommand16>
			tft_dc_high();
 80010ce:	f000 f983 	bl	80013d8 <tft_dc_high>
			spi1_transmit_DMA(size);
 80010d2:	8a7b      	ldrh	r3, [r7, #18]
 80010d4:	4618      	mov	r0, r3
 80010d6:	f000 fbcf 	bl	8001878 <spi1_transmit_DMA>
			tft_dc_low();
 80010da:	f000 f96d 	bl	80013b8 <tft_dc_low>
 80010de:	e004      	b.n	80010ea <fillRectangle+0x106>
	if((x+a<0) || (x >= DISPLAY_X_MAX ))return;
 80010e0:	bf00      	nop
 80010e2:	e002      	b.n	80010ea <fillRectangle+0x106>
	if((y+b<0) || (y >= DISPLAY_Y_MAX ))return;
 80010e4:	bf00      	nop
 80010e6:	e000      	b.n	80010ea <fillRectangle+0x106>
		return; //not handled properly at the moment
 80010e8:	bf00      	nop
}
 80010ea:	3718      	adds	r7, #24
 80010ec:	46bd      	mov	sp, r7
 80010ee:	bd80      	pop	{r7, pc}
 80010f0:	200000d0 	.word	0x200000d0

080010f4 <fillRectangle_oneColor>:

void fillRectangle_oneColor(uint16_t *buffer,int16_t x,int16_t y, uint8_t a, uint8_t b){
 80010f4:	b580      	push	{r7, lr}
 80010f6:	b086      	sub	sp, #24
 80010f8:	af00      	add	r7, sp, #0
 80010fa:	60f8      	str	r0, [r7, #12]
 80010fc:	4608      	mov	r0, r1
 80010fe:	4611      	mov	r1, r2
 8001100:	461a      	mov	r2, r3
 8001102:	4603      	mov	r3, r0
 8001104:	817b      	strh	r3, [r7, #10]
 8001106:	460b      	mov	r3, r1
 8001108:	813b      	strh	r3, [r7, #8]
 800110a:	4613      	mov	r3, r2
 800110c:	71fb      	strb	r3, [r7, #7]
	//fills a rectangular area of the screen with just one color defined by buffer[0]
	//this way there is no need for the MPU to fill the whole buffer with a*b times the same element

	setSingleColorStatus(1); //switch of DMA increment of buffer
 800110e:	2001      	movs	r0, #1
 8001110:	f000 f972 	bl	80013f8 <setSingleColorStatus>

	//check for completely out of bounds
	if((x+a<0) || (x >= DISPLAY_X_MAX ))return;
 8001114:	f9b7 200a 	ldrsh.w	r2, [r7, #10]
 8001118:	79fb      	ldrb	r3, [r7, #7]
 800111a:	4413      	add	r3, r2
 800111c:	2b00      	cmp	r3, #0
 800111e:	db31      	blt.n	8001184 <fillRectangle_oneColor+0x90>
 8001120:	f9b7 300a 	ldrsh.w	r3, [r7, #10]
 8001124:	2bef      	cmp	r3, #239	@ 0xef
 8001126:	dc2d      	bgt.n	8001184 <fillRectangle_oneColor+0x90>
	if((y+b<0) || (y >= DISPLAY_Y_MAX ))return;
 8001128:	f9b7 2008 	ldrsh.w	r2, [r7, #8]
 800112c:	f897 3020 	ldrb.w	r3, [r7, #32]
 8001130:	4413      	add	r3, r2
 8001132:	2b00      	cmp	r3, #0
 8001134:	db28      	blt.n	8001188 <fillRectangle_oneColor+0x94>
 8001136:	f9b7 3008 	ldrsh.w	r3, [r7, #8]
 800113a:	2bf0      	cmp	r3, #240	@ 0xf0
 800113c:	dc24      	bgt.n	8001188 <fillRectangle_oneColor+0x94>

	//calculate total size to transmit
	uint16_t size = a*b;
 800113e:	79fb      	ldrb	r3, [r7, #7]
 8001140:	b29a      	uxth	r2, r3
 8001142:	f897 3020 	ldrb.w	r3, [r7, #32]
 8001146:	b29b      	uxth	r3, r3
 8001148:	fb12 f303 	smulbb	r3, r2, r3
 800114c:	82fb      	strh	r3, [r7, #22]
	initAdressWindow(x, y, a, b);
 800114e:	8978      	ldrh	r0, [r7, #10]
 8001150:	8939      	ldrh	r1, [r7, #8]
 8001152:	79fb      	ldrb	r3, [r7, #7]
 8001154:	b29a      	uxth	r2, r3
 8001156:	f897 3020 	ldrb.w	r3, [r7, #32]
 800115a:	b29b      	uxth	r3, r3
 800115c:	f000 f89c 	bl	8001298 <initAdressWindow>

	//fill Buffer
	windowBuffer[0]=buffer[0];
 8001160:	68fb      	ldr	r3, [r7, #12]
 8001162:	881a      	ldrh	r2, [r3, #0]
 8001164:	4b0a      	ldr	r3, [pc, #40]	@ (8001190 <fillRectangle_oneColor+0x9c>)
 8001166:	801a      	strh	r2, [r3, #0]

	//sending Data via DMA

	sendCommand16((uint16_t)ST77XX_RAMWR, NULL, 0);
 8001168:	2200      	movs	r2, #0
 800116a:	2100      	movs	r1, #0
 800116c:	202c      	movs	r0, #44	@ 0x2c
 800116e:	f7ff fe6f 	bl	8000e50 <sendCommand16>
			tft_dc_high();
 8001172:	f000 f931 	bl	80013d8 <tft_dc_high>
			spi1_transmit_DMA(size);
 8001176:	8afb      	ldrh	r3, [r7, #22]
 8001178:	4618      	mov	r0, r3
 800117a:	f000 fb7d 	bl	8001878 <spi1_transmit_DMA>
			tft_dc_low();
 800117e:	f000 f91b 	bl	80013b8 <tft_dc_low>
 8001182:	e002      	b.n	800118a <fillRectangle_oneColor+0x96>
	if((x+a<0) || (x >= DISPLAY_X_MAX ))return;
 8001184:	bf00      	nop
 8001186:	e000      	b.n	800118a <fillRectangle_oneColor+0x96>
	if((y+b<0) || (y >= DISPLAY_Y_MAX ))return;
 8001188:	bf00      	nop
}
 800118a:	3718      	adds	r7, #24
 800118c:	46bd      	mov	sp, r7
 800118e:	bd80      	pop	{r7, pc}
 8001190:	200000d0 	.word	0x200000d0

08001194 <fillSquare_scaleup>:

void fillSquare_scaleup(uint16_t (*buffer)[8], uint16_t x, uint16_t y, uint16_t a){
 8001194:	b580      	push	{r7, lr}
 8001196:	b088      	sub	sp, #32
 8001198:	af02      	add	r7, sp, #8
 800119a:	60f8      	str	r0, [r7, #12]
 800119c:	4608      	mov	r0, r1
 800119e:	4611      	mov	r1, r2
 80011a0:	461a      	mov	r2, r3
 80011a2:	4603      	mov	r3, r0
 80011a4:	817b      	strh	r3, [r7, #10]
 80011a6:	460b      	mov	r3, r1
 80011a8:	813b      	strh	r3, [r7, #8]
 80011aa:	4613      	mov	r3, r2
 80011ac:	80fb      	strh	r3, [r7, #6]
	//fill a square of size 2a x 2a with the contents of *buffer,
	// use each pixel in buffer to fill 4 pixel in windowBuffer
	setSingleColorStatus(0); //single color mode =off
 80011ae:	2000      	movs	r0, #0
 80011b0:	f000 f922 	bl	80013f8 <setSingleColorStatus>
	const uint8_t scale = 2;
 80011b4:	2302      	movs	r3, #2
 80011b6:	757b      	strb	r3, [r7, #21]
	uint16_t size = a*a;
 80011b8:	88fb      	ldrh	r3, [r7, #6]
 80011ba:	fb13 f303 	smulbb	r3, r3, r3
 80011be:	827b      	strh	r3, [r7, #18]
	for (uint8_t i=0; i < a;i++){
 80011c0:	2300      	movs	r3, #0
 80011c2:	75fb      	strb	r3, [r7, #23]
 80011c4:	e04b      	b.n	800125e <fillSquare_scaleup+0xca>
		for(uint8_t j=0;j<a;j++){
 80011c6:	2300      	movs	r3, #0
 80011c8:	75bb      	strb	r3, [r7, #22]
 80011ca:	e040      	b.n	800124e <fillSquare_scaleup+0xba>
				uint16_t dst = i*2*2*a + j*2;
 80011cc:	7dfb      	ldrb	r3, [r7, #23]
 80011ce:	88fa      	ldrh	r2, [r7, #6]
 80011d0:	fb02 f303 	mul.w	r3, r2, r3
 80011d4:	005a      	lsls	r2, r3, #1
 80011d6:	7dbb      	ldrb	r3, [r7, #22]
 80011d8:	4413      	add	r3, r2
 80011da:	b29b      	uxth	r3, r3
 80011dc:	005b      	lsls	r3, r3, #1
 80011de:	823b      	strh	r3, [r7, #16]
				windowBuffer[dst]=buffer[i][j];
 80011e0:	7dfb      	ldrb	r3, [r7, #23]
 80011e2:	011b      	lsls	r3, r3, #4
 80011e4:	68fa      	ldr	r2, [r7, #12]
 80011e6:	441a      	add	r2, r3
 80011e8:	7db9      	ldrb	r1, [r7, #22]
 80011ea:	8a3b      	ldrh	r3, [r7, #16]
 80011ec:	f832 1011 	ldrh.w	r1, [r2, r1, lsl #1]
 80011f0:	4a28      	ldr	r2, [pc, #160]	@ (8001294 <fillSquare_scaleup+0x100>)
 80011f2:	f822 1013 	strh.w	r1, [r2, r3, lsl #1]
				windowBuffer[dst + 1]=buffer[i][j];
 80011f6:	7dfb      	ldrb	r3, [r7, #23]
 80011f8:	011b      	lsls	r3, r3, #4
 80011fa:	68fa      	ldr	r2, [r7, #12]
 80011fc:	441a      	add	r2, r3
 80011fe:	7db9      	ldrb	r1, [r7, #22]
 8001200:	8a3b      	ldrh	r3, [r7, #16]
 8001202:	3301      	adds	r3, #1
 8001204:	f832 1011 	ldrh.w	r1, [r2, r1, lsl #1]
 8001208:	4a22      	ldr	r2, [pc, #136]	@ (8001294 <fillSquare_scaleup+0x100>)
 800120a:	f822 1013 	strh.w	r1, [r2, r3, lsl #1]
				windowBuffer[dst + 2 *a]=buffer[i][j];
 800120e:	7dfb      	ldrb	r3, [r7, #23]
 8001210:	011b      	lsls	r3, r3, #4
 8001212:	68fa      	ldr	r2, [r7, #12]
 8001214:	441a      	add	r2, r3
 8001216:	7db9      	ldrb	r1, [r7, #22]
 8001218:	8a38      	ldrh	r0, [r7, #16]
 800121a:	88fb      	ldrh	r3, [r7, #6]
 800121c:	005b      	lsls	r3, r3, #1
 800121e:	4403      	add	r3, r0
 8001220:	f832 1011 	ldrh.w	r1, [r2, r1, lsl #1]
 8001224:	4a1b      	ldr	r2, [pc, #108]	@ (8001294 <fillSquare_scaleup+0x100>)
 8001226:	f822 1013 	strh.w	r1, [r2, r3, lsl #1]
				windowBuffer[dst + 2*a +1 ]=buffer[i][j];
 800122a:	7dfb      	ldrb	r3, [r7, #23]
 800122c:	011b      	lsls	r3, r3, #4
 800122e:	68fa      	ldr	r2, [r7, #12]
 8001230:	441a      	add	r2, r3
 8001232:	7db9      	ldrb	r1, [r7, #22]
 8001234:	8a38      	ldrh	r0, [r7, #16]
 8001236:	88fb      	ldrh	r3, [r7, #6]
 8001238:	005b      	lsls	r3, r3, #1
 800123a:	4403      	add	r3, r0
 800123c:	3301      	adds	r3, #1
 800123e:	f832 1011 	ldrh.w	r1, [r2, r1, lsl #1]
 8001242:	4a14      	ldr	r2, [pc, #80]	@ (8001294 <fillSquare_scaleup+0x100>)
 8001244:	f822 1013 	strh.w	r1, [r2, r3, lsl #1]
		for(uint8_t j=0;j<a;j++){
 8001248:	7dbb      	ldrb	r3, [r7, #22]
 800124a:	3301      	adds	r3, #1
 800124c:	75bb      	strb	r3, [r7, #22]
 800124e:	7dbb      	ldrb	r3, [r7, #22]
 8001250:	b29b      	uxth	r3, r3
 8001252:	88fa      	ldrh	r2, [r7, #6]
 8001254:	429a      	cmp	r2, r3
 8001256:	d8b9      	bhi.n	80011cc <fillSquare_scaleup+0x38>
	for (uint8_t i=0; i < a;i++){
 8001258:	7dfb      	ldrb	r3, [r7, #23]
 800125a:	3301      	adds	r3, #1
 800125c:	75fb      	strb	r3, [r7, #23]
 800125e:	7dfb      	ldrb	r3, [r7, #23]
 8001260:	b29b      	uxth	r3, r3
 8001262:	88fa      	ldrh	r2, [r7, #6]
 8001264:	429a      	cmp	r2, r3
 8001266:	d8ae      	bhi.n	80011c6 <fillSquare_scaleup+0x32>
			}
	}
	fillRectangle(windowBuffer, x, y, 2*a,2*a);
 8001268:	f9b7 100a 	ldrsh.w	r1, [r7, #10]
 800126c:	f9b7 2008 	ldrsh.w	r2, [r7, #8]
 8001270:	88fb      	ldrh	r3, [r7, #6]
 8001272:	b2db      	uxtb	r3, r3
 8001274:	005b      	lsls	r3, r3, #1
 8001276:	b2d8      	uxtb	r0, r3
 8001278:	88fb      	ldrh	r3, [r7, #6]
 800127a:	b2db      	uxtb	r3, r3
 800127c:	005b      	lsls	r3, r3, #1
 800127e:	b2db      	uxtb	r3, r3
 8001280:	9300      	str	r3, [sp, #0]
 8001282:	4603      	mov	r3, r0
 8001284:	4803      	ldr	r0, [pc, #12]	@ (8001294 <fillSquare_scaleup+0x100>)
 8001286:	f7ff fead 	bl	8000fe4 <fillRectangle>
}
 800128a:	bf00      	nop
 800128c:	3718      	adds	r7, #24
 800128e:	46bd      	mov	sp, r7
 8001290:	bd80      	pop	{r7, pc}
 8001292:	bf00      	nop
 8001294:	200000d0 	.word	0x200000d0

08001298 <initAdressWindow>:

void initAdressWindow(uint16_t x, uint16_t y, uint16_t width, uint16_t height){
 8001298:	b590      	push	{r4, r7, lr}
 800129a:	b089      	sub	sp, #36	@ 0x24
 800129c:	af00      	add	r7, sp, #0
 800129e:	4604      	mov	r4, r0
 80012a0:	4608      	mov	r0, r1
 80012a2:	4611      	mov	r1, r2
 80012a4:	461a      	mov	r2, r3
 80012a6:	4623      	mov	r3, r4
 80012a8:	80fb      	strh	r3, [r7, #6]
 80012aa:	4603      	mov	r3, r0
 80012ac:	80bb      	strh	r3, [r7, #4]
 80012ae:	460b      	mov	r3, r1
 80012b0:	807b      	strh	r3, [r7, #2]
 80012b2:	4613      	mov	r3, r2
 80012b4:	803b      	strh	r3, [r7, #0]
	//define maximums for x,y
	uint16_t xmax = x + width - 1;
 80012b6:	88fa      	ldrh	r2, [r7, #6]
 80012b8:	887b      	ldrh	r3, [r7, #2]
 80012ba:	4413      	add	r3, r2
 80012bc:	b29b      	uxth	r3, r3
 80012be:	3b01      	subs	r3, #1
 80012c0:	83fb      	strh	r3, [r7, #30]
	uint16_t ymax = y + height - 1;
 80012c2:	88ba      	ldrh	r2, [r7, #4]
 80012c4:	883b      	ldrh	r3, [r7, #0]
 80012c6:	4413      	add	r3, r2
 80012c8:	b29b      	uxth	r3, r3
 80012ca:	3b01      	subs	r3, #1
 80012cc:	83bb      	strh	r3, [r7, #28]

	//split into MSB/LSB
	uint8_t x_lo =(uint8_t)(x & 0xFF);
 80012ce:	88fb      	ldrh	r3, [r7, #6]
 80012d0:	76fb      	strb	r3, [r7, #27]
	uint8_t x_hi =(uint8_t) (x >> 8);
 80012d2:	88fb      	ldrh	r3, [r7, #6]
 80012d4:	0a1b      	lsrs	r3, r3, #8
 80012d6:	b29b      	uxth	r3, r3
 80012d8:	76bb      	strb	r3, [r7, #26]
	uint8_t xmax_lo = (uint8_t)(xmax & 0xFF);
 80012da:	8bfb      	ldrh	r3, [r7, #30]
 80012dc:	767b      	strb	r3, [r7, #25]
	uint8_t xmax_hi = (uint8_t)(xmax >> 8);
 80012de:	8bfb      	ldrh	r3, [r7, #30]
 80012e0:	0a1b      	lsrs	r3, r3, #8
 80012e2:	b29b      	uxth	r3, r3
 80012e4:	763b      	strb	r3, [r7, #24]

	uint8_t y_lo =(uint8_t) (y & 0xFF);
 80012e6:	88bb      	ldrh	r3, [r7, #4]
 80012e8:	75fb      	strb	r3, [r7, #23]
	uint8_t y_hi =(uint8_t) (y >> 8);
 80012ea:	88bb      	ldrh	r3, [r7, #4]
 80012ec:	0a1b      	lsrs	r3, r3, #8
 80012ee:	b29b      	uxth	r3, r3
 80012f0:	75bb      	strb	r3, [r7, #22]
	uint8_t ymax_lo = (uint8_t)(ymax & 0xFF);
 80012f2:	8bbb      	ldrh	r3, [r7, #28]
 80012f4:	757b      	strb	r3, [r7, #21]
	uint8_t ymax_hi = (uint8_t)(ymax >> 8);
 80012f6:	8bbb      	ldrh	r3, [r7, #28]
 80012f8:	0a1b      	lsrs	r3, r3, #8
 80012fa:	b29b      	uxth	r3, r3
 80012fc:	753b      	strb	r3, [r7, #20]

	//prepare and set caset/raset for display
	uint8_t caset_data[4] =  {x_hi ,x_lo,xmax_hi,xmax_lo};
 80012fe:	7ebb      	ldrb	r3, [r7, #26]
 8001300:	743b      	strb	r3, [r7, #16]
 8001302:	7efb      	ldrb	r3, [r7, #27]
 8001304:	747b      	strb	r3, [r7, #17]
 8001306:	7e3b      	ldrb	r3, [r7, #24]
 8001308:	74bb      	strb	r3, [r7, #18]
 800130a:	7e7b      	ldrb	r3, [r7, #25]
 800130c:	74fb      	strb	r3, [r7, #19]
	uint8_t raset_data[4] =  {y_hi ,y_lo,ymax_hi,ymax_lo};
 800130e:	7dbb      	ldrb	r3, [r7, #22]
 8001310:	733b      	strb	r3, [r7, #12]
 8001312:	7dfb      	ldrb	r3, [r7, #23]
 8001314:	737b      	strb	r3, [r7, #13]
 8001316:	7d3b      	ldrb	r3, [r7, #20]
 8001318:	73bb      	strb	r3, [r7, #14]
 800131a:	7d7b      	ldrb	r3, [r7, #21]
 800131c:	73fb      	strb	r3, [r7, #15]
	sendCommand((uint8_t)ST77XX_CASET,caset_data, 4);
 800131e:	f107 0310 	add.w	r3, r7, #16
 8001322:	2204      	movs	r2, #4
 8001324:	4619      	mov	r1, r3
 8001326:	202a      	movs	r0, #42	@ 0x2a
 8001328:	f7ff fd6a 	bl	8000e00 <sendCommand>
	sendCommand((uint8_t)ST77XX_RASET, raset_data, 4);
 800132c:	f107 030c 	add.w	r3, r7, #12
 8001330:	2204      	movs	r2, #4
 8001332:	4619      	mov	r1, r3
 8001334:	202b      	movs	r0, #43	@ 0x2b
 8001336:	f7ff fd63 	bl	8000e00 <sendCommand>
	sendCommand((uint8_t)ST77XX_RAMWR, NULL, 0);
 800133a:	2200      	movs	r2, #0
 800133c:	2100      	movs	r1, #0
 800133e:	202c      	movs	r0, #44	@ 0x2c
 8001340:	f7ff fd5e 	bl	8000e00 <sendCommand>
}
 8001344:	bf00      	nop
 8001346:	3724      	adds	r7, #36	@ 0x24
 8001348:	46bd      	mov	sp, r7
 800134a:	bd90      	pop	{r4, r7, pc}

0800134c <displayReset>:
			}
				spi1_transmit16(lineBuffer,DISPLAY_X_MAX);
			}
			tft_dc_low();
}
void displayReset(void){
 800134c:	b580      	push	{r7, lr}
 800134e:	af00      	add	r7, sp, #0
	//reset pin aus und wieder an
	GPIOA->ODR &=~ (1U<<10);
 8001350:	4b08      	ldr	r3, [pc, #32]	@ (8001374 <displayReset+0x28>)
 8001352:	695b      	ldr	r3, [r3, #20]
 8001354:	4a07      	ldr	r2, [pc, #28]	@ (8001374 <displayReset+0x28>)
 8001356:	f423 6380 	bic.w	r3, r3, #1024	@ 0x400
 800135a:	6153      	str	r3, [r2, #20]
	systick_msec_sleep(20); //50ms war stabil, 20ms geraten, aber funktioniert
 800135c:	2014      	movs	r0, #20
 800135e:	f000 fb2d 	bl	80019bc <systick_msec_sleep>
	GPIOA->ODR |= (1U<<10);
 8001362:	4b04      	ldr	r3, [pc, #16]	@ (8001374 <displayReset+0x28>)
 8001364:	695b      	ldr	r3, [r3, #20]
 8001366:	4a03      	ldr	r2, [pc, #12]	@ (8001374 <displayReset+0x28>)
 8001368:	f443 6380 	orr.w	r3, r3, #1024	@ 0x400
 800136c:	6153      	str	r3, [r2, #20]
}
 800136e:	bf00      	nop
 8001370:	bd80      	pop	{r7, pc}
 8001372:	bf00      	nop
 8001374:	40020000 	.word	0x40020000

08001378 <cs_enable>:
void cs_enable(void)/*Pull low to enable*/
{
 8001378:	b480      	push	{r7}
 800137a:	af00      	add	r7, sp, #0
	GPIOA->ODR &=~(1U<<11);
 800137c:	4b05      	ldr	r3, [pc, #20]	@ (8001394 <cs_enable+0x1c>)
 800137e:	695b      	ldr	r3, [r3, #20]
 8001380:	4a04      	ldr	r2, [pc, #16]	@ (8001394 <cs_enable+0x1c>)
 8001382:	f423 6300 	bic.w	r3, r3, #2048	@ 0x800
 8001386:	6153      	str	r3, [r2, #20]

}
 8001388:	bf00      	nop
 800138a:	46bd      	mov	sp, r7
 800138c:	f85d 7b04 	ldr.w	r7, [sp], #4
 8001390:	4770      	bx	lr
 8001392:	bf00      	nop
 8001394:	40020000 	.word	0x40020000

08001398 <cs_disable>:

void cs_disable(void) /*Pull high to disable*/
{
 8001398:	b480      	push	{r7}
 800139a:	af00      	add	r7, sp, #0
	GPIOA->ODR |=(1U<<11);
 800139c:	4b05      	ldr	r3, [pc, #20]	@ (80013b4 <cs_disable+0x1c>)
 800139e:	695b      	ldr	r3, [r3, #20]
 80013a0:	4a04      	ldr	r2, [pc, #16]	@ (80013b4 <cs_disable+0x1c>)
 80013a2:	f443 6300 	orr.w	r3, r3, #2048	@ 0x800
 80013a6:	6153      	str	r3, [r2, #20]
}
 80013a8:	bf00      	nop
 80013aa:	46bd      	mov	sp, r7
 80013ac:	f85d 7b04 	ldr.w	r7, [sp], #4
 80013b0:	4770      	bx	lr
 80013b2:	bf00      	nop
 80013b4:	40020000 	.word	0x40020000

080013b8 <tft_dc_low>:

void tft_dc_low(void){
 80013b8:	b480      	push	{r7}
 80013ba:	af00      	add	r7, sp, #0
	GPIOA->ODR &=~(1U<<9);
 80013bc:	4b05      	ldr	r3, [pc, #20]	@ (80013d4 <tft_dc_low+0x1c>)
 80013be:	695b      	ldr	r3, [r3, #20]
 80013c0:	4a04      	ldr	r2, [pc, #16]	@ (80013d4 <tft_dc_low+0x1c>)
 80013c2:	f423 7300 	bic.w	r3, r3, #512	@ 0x200
 80013c6:	6153      	str	r3, [r2, #20]
}
 80013c8:	bf00      	nop
 80013ca:	46bd      	mov	sp, r7
 80013cc:	f85d 7b04 	ldr.w	r7, [sp], #4
 80013d0:	4770      	bx	lr
 80013d2:	bf00      	nop
 80013d4:	40020000 	.word	0x40020000

080013d8 <tft_dc_high>:
void tft_dc_high(void){
 80013d8:	b480      	push	{r7}
 80013da:	af00      	add	r7, sp, #0
	GPIOA->ODR |=(1U<<9);
 80013dc:	4b05      	ldr	r3, [pc, #20]	@ (80013f4 <tft_dc_high+0x1c>)
 80013de:	695b      	ldr	r3, [r3, #20]
 80013e0:	4a04      	ldr	r2, [pc, #16]	@ (80013f4 <tft_dc_high+0x1c>)
 80013e2:	f443 7300 	orr.w	r3, r3, #512	@ 0x200
 80013e6:	6153      	str	r3, [r2, #20]
}
 80013e8:	bf00      	nop
 80013ea:	46bd      	mov	sp, r7
 80013ec:	f85d 7b04 	ldr.w	r7, [sp], #4
 80013f0:	4770      	bx	lr
 80013f2:	bf00      	nop
 80013f4:	40020000 	.word	0x40020000

080013f8 <setSingleColorStatus>:

void setSingleColorStatus(bool singleColor){
 80013f8:	b580      	push	{r7, lr}
 80013fa:	b082      	sub	sp, #8
 80013fc:	af00      	add	r7, sp, #0
 80013fe:	4603      	mov	r3, r0
 8001400:	71fb      	strb	r3, [r7, #7]
	if(singleColor == singleColorStatus){
 8001402:	4b08      	ldr	r3, [pc, #32]	@ (8001424 <setSingleColorStatus+0x2c>)
 8001404:	781b      	ldrb	r3, [r3, #0]
 8001406:	79fa      	ldrb	r2, [r7, #7]
 8001408:	429a      	cmp	r2, r3
 800140a:	d007      	beq.n	800141c <setSingleColorStatus+0x24>
		//do nothing if already in right state
		return;
	}
	else{
		//set DMA mode
		spi_dma_setSingleColorStatus(singleColor);
 800140c:	79fb      	ldrb	r3, [r7, #7]
 800140e:	4618      	mov	r0, r3
 8001410:	f000 fa7a 	bl	8001908 <spi_dma_setSingleColorStatus>
		//update buffer
		singleColorStatus = singleColor;
 8001414:	4a03      	ldr	r2, [pc, #12]	@ (8001424 <setSingleColorStatus+0x2c>)
 8001416:	79fb      	ldrb	r3, [r7, #7]
 8001418:	7013      	strb	r3, [r2, #0]
 800141a:	e000      	b.n	800141e <setSingleColorStatus+0x26>
		return;
 800141c:	bf00      	nop
	}
}
 800141e:	3708      	adds	r7, #8
 8001420:	46bd      	mov	sp, r7
 8001422:	bd80      	pop	{r7, pc}
 8001424:	20000490 	.word	0x20000490

08001428 <spi_gpio_init>:

//PA9 -> Slave Select


void spi_gpio_init(void)
{
 8001428:	b480      	push	{r7}
 800142a:	af00      	add	r7, sp, #0
	/*Enable clock access to GPIOA*/
	RCC->AHB1ENR |= GPIOAEN;
 800142c:	4b47      	ldr	r3, [pc, #284]	@ (800154c <spi_gpio_init+0x124>)
 800142e:	6b1b      	ldr	r3, [r3, #48]	@ 0x30
 8001430:	4a46      	ldr	r2, [pc, #280]	@ (800154c <spi_gpio_init+0x124>)
 8001432:	f043 0301 	orr.w	r3, r3, #1
 8001436:	6313      	str	r3, [r2, #48]	@ 0x30

	/*Set PA5,PA6,PA7 mode to alternate function*/

	/*PA5*/
	GPIOA->MODER &=~(1U<<10);
 8001438:	4b45      	ldr	r3, [pc, #276]	@ (8001550 <spi_gpio_init+0x128>)
 800143a:	681b      	ldr	r3, [r3, #0]
 800143c:	4a44      	ldr	r2, [pc, #272]	@ (8001550 <spi_gpio_init+0x128>)
 800143e:	f423 6380 	bic.w	r3, r3, #1024	@ 0x400
 8001442:	6013      	str	r3, [r2, #0]
	GPIOA->MODER |=(1U<<11);
 8001444:	4b42      	ldr	r3, [pc, #264]	@ (8001550 <spi_gpio_init+0x128>)
 8001446:	681b      	ldr	r3, [r3, #0]
 8001448:	4a41      	ldr	r2, [pc, #260]	@ (8001550 <spi_gpio_init+0x128>)
 800144a:	f443 6300 	orr.w	r3, r3, #2048	@ 0x800
 800144e:	6013      	str	r3, [r2, #0]

	/*PA6*/
	GPIOA->MODER &=~(1U<<12);
 8001450:	4b3f      	ldr	r3, [pc, #252]	@ (8001550 <spi_gpio_init+0x128>)
 8001452:	681b      	ldr	r3, [r3, #0]
 8001454:	4a3e      	ldr	r2, [pc, #248]	@ (8001550 <spi_gpio_init+0x128>)
 8001456:	f423 5380 	bic.w	r3, r3, #4096	@ 0x1000
 800145a:	6013      	str	r3, [r2, #0]
	GPIOA->MODER |=(1U<<13);
 800145c:	4b3c      	ldr	r3, [pc, #240]	@ (8001550 <spi_gpio_init+0x128>)
 800145e:	681b      	ldr	r3, [r3, #0]
 8001460:	4a3b      	ldr	r2, [pc, #236]	@ (8001550 <spi_gpio_init+0x128>)
 8001462:	f443 5300 	orr.w	r3, r3, #8192	@ 0x2000
 8001466:	6013      	str	r3, [r2, #0]

	/*PA7*/
	GPIOA->MODER &=~(1U<<14);
 8001468:	4b39      	ldr	r3, [pc, #228]	@ (8001550 <spi_gpio_init+0x128>)
 800146a:	681b      	ldr	r3, [r3, #0]
 800146c:	4a38      	ldr	r2, [pc, #224]	@ (8001550 <spi_gpio_init+0x128>)
 800146e:	f423 4380 	bic.w	r3, r3, #16384	@ 0x4000
 8001472:	6013      	str	r3, [r2, #0]
	GPIOA->MODER |=(1U<<15);
 8001474:	4b36      	ldr	r3, [pc, #216]	@ (8001550 <spi_gpio_init+0x128>)
 8001476:	681b      	ldr	r3, [r3, #0]
 8001478:	4a35      	ldr	r2, [pc, #212]	@ (8001550 <spi_gpio_init+0x128>)
 800147a:	f443 4300 	orr.w	r3, r3, #32768	@ 0x8000
 800147e:	6013      	str	r3, [r2, #0]

	/*PA8*/
	GPIOA->MODER |=(1U<<18);
 8001480:	4b33      	ldr	r3, [pc, #204]	@ (8001550 <spi_gpio_init+0x128>)
 8001482:	681b      	ldr	r3, [r3, #0]
 8001484:	4a32      	ldr	r2, [pc, #200]	@ (8001550 <spi_gpio_init+0x128>)
 8001486:	f443 2380 	orr.w	r3, r3, #262144	@ 0x40000
 800148a:	6013      	str	r3, [r2, #0]
	GPIOA->MODER &=~(1U<<19);
 800148c:	4b30      	ldr	r3, [pc, #192]	@ (8001550 <spi_gpio_init+0x128>)
 800148e:	681b      	ldr	r3, [r3, #0]
 8001490:	4a2f      	ldr	r2, [pc, #188]	@ (8001550 <spi_gpio_init+0x128>)
 8001492:	f423 2300 	bic.w	r3, r3, #524288	@ 0x80000
 8001496:	6013      	str	r3, [r2, #0]

	/*PA10 as output*/
	GPIOA->MODER |=  (1U<<20);
 8001498:	4b2d      	ldr	r3, [pc, #180]	@ (8001550 <spi_gpio_init+0x128>)
 800149a:	681b      	ldr	r3, [r3, #0]
 800149c:	4a2c      	ldr	r2, [pc, #176]	@ (8001550 <spi_gpio_init+0x128>)
 800149e:	f443 1380 	orr.w	r3, r3, #1048576	@ 0x100000
 80014a2:	6013      	str	r3, [r2, #0]
	GPIOA->MODER &= ~(1U<<21);
 80014a4:	4b2a      	ldr	r3, [pc, #168]	@ (8001550 <spi_gpio_init+0x128>)
 80014a6:	681b      	ldr	r3, [r3, #0]
 80014a8:	4a29      	ldr	r2, [pc, #164]	@ (8001550 <spi_gpio_init+0x128>)
 80014aa:	f423 1300 	bic.w	r3, r3, #2097152	@ 0x200000
 80014ae:	6013      	str	r3, [r2, #0]

	/*Set PA5,PA6,PA7 alternate function type to SPI1*/
	/*PA5*/
	GPIOA->AFR[0] |=(1U<<20);
 80014b0:	4b27      	ldr	r3, [pc, #156]	@ (8001550 <spi_gpio_init+0x128>)
 80014b2:	6a1b      	ldr	r3, [r3, #32]
 80014b4:	4a26      	ldr	r2, [pc, #152]	@ (8001550 <spi_gpio_init+0x128>)
 80014b6:	f443 1380 	orr.w	r3, r3, #1048576	@ 0x100000
 80014ba:	6213      	str	r3, [r2, #32]
	GPIOA->AFR[0] &= ~(1U<<21);
 80014bc:	4b24      	ldr	r3, [pc, #144]	@ (8001550 <spi_gpio_init+0x128>)
 80014be:	6a1b      	ldr	r3, [r3, #32]
 80014c0:	4a23      	ldr	r2, [pc, #140]	@ (8001550 <spi_gpio_init+0x128>)
 80014c2:	f423 1300 	bic.w	r3, r3, #2097152	@ 0x200000
 80014c6:	6213      	str	r3, [r2, #32]
	GPIOA->AFR[0] |=(1U<<22);
 80014c8:	4b21      	ldr	r3, [pc, #132]	@ (8001550 <spi_gpio_init+0x128>)
 80014ca:	6a1b      	ldr	r3, [r3, #32]
 80014cc:	4a20      	ldr	r2, [pc, #128]	@ (8001550 <spi_gpio_init+0x128>)
 80014ce:	f443 0380 	orr.w	r3, r3, #4194304	@ 0x400000
 80014d2:	6213      	str	r3, [r2, #32]
	GPIOA->AFR[0] &= ~(1U<<23);
 80014d4:	4b1e      	ldr	r3, [pc, #120]	@ (8001550 <spi_gpio_init+0x128>)
 80014d6:	6a1b      	ldr	r3, [r3, #32]
 80014d8:	4a1d      	ldr	r2, [pc, #116]	@ (8001550 <spi_gpio_init+0x128>)
 80014da:	f423 0300 	bic.w	r3, r3, #8388608	@ 0x800000
 80014de:	6213      	str	r3, [r2, #32]

	/*PA6*/
	GPIOA->AFR[0] |=(1U<<24);
 80014e0:	4b1b      	ldr	r3, [pc, #108]	@ (8001550 <spi_gpio_init+0x128>)
 80014e2:	6a1b      	ldr	r3, [r3, #32]
 80014e4:	4a1a      	ldr	r2, [pc, #104]	@ (8001550 <spi_gpio_init+0x128>)
 80014e6:	f043 7380 	orr.w	r3, r3, #16777216	@ 0x1000000
 80014ea:	6213      	str	r3, [r2, #32]
	GPIOA->AFR[0] &= ~(1U<<25);
 80014ec:	4b18      	ldr	r3, [pc, #96]	@ (8001550 <spi_gpio_init+0x128>)
 80014ee:	6a1b      	ldr	r3, [r3, #32]
 80014f0:	4a17      	ldr	r2, [pc, #92]	@ (8001550 <spi_gpio_init+0x128>)
 80014f2:	f023 7300 	bic.w	r3, r3, #33554432	@ 0x2000000
 80014f6:	6213      	str	r3, [r2, #32]
	GPIOA->AFR[0] |=(1U<<26);
 80014f8:	4b15      	ldr	r3, [pc, #84]	@ (8001550 <spi_gpio_init+0x128>)
 80014fa:	6a1b      	ldr	r3, [r3, #32]
 80014fc:	4a14      	ldr	r2, [pc, #80]	@ (8001550 <spi_gpio_init+0x128>)
 80014fe:	f043 6380 	orr.w	r3, r3, #67108864	@ 0x4000000
 8001502:	6213      	str	r3, [r2, #32]
	GPIOA->AFR[0] &= ~(1U<<27);
 8001504:	4b12      	ldr	r3, [pc, #72]	@ (8001550 <spi_gpio_init+0x128>)
 8001506:	6a1b      	ldr	r3, [r3, #32]
 8001508:	4a11      	ldr	r2, [pc, #68]	@ (8001550 <spi_gpio_init+0x128>)
 800150a:	f023 6300 	bic.w	r3, r3, #134217728	@ 0x8000000
 800150e:	6213      	str	r3, [r2, #32]

	/*PA7*/
	GPIOA->AFR[0] |=(1U<<28);
 8001510:	4b0f      	ldr	r3, [pc, #60]	@ (8001550 <spi_gpio_init+0x128>)
 8001512:	6a1b      	ldr	r3, [r3, #32]
 8001514:	4a0e      	ldr	r2, [pc, #56]	@ (8001550 <spi_gpio_init+0x128>)
 8001516:	f043 5380 	orr.w	r3, r3, #268435456	@ 0x10000000
 800151a:	6213      	str	r3, [r2, #32]
	GPIOA->AFR[0] &= ~(1U<<29);
 800151c:	4b0c      	ldr	r3, [pc, #48]	@ (8001550 <spi_gpio_init+0x128>)
 800151e:	6a1b      	ldr	r3, [r3, #32]
 8001520:	4a0b      	ldr	r2, [pc, #44]	@ (8001550 <spi_gpio_init+0x128>)
 8001522:	f023 5300 	bic.w	r3, r3, #536870912	@ 0x20000000
 8001526:	6213      	str	r3, [r2, #32]
	GPIOA->AFR[0] |=(1U<<30);
 8001528:	4b09      	ldr	r3, [pc, #36]	@ (8001550 <spi_gpio_init+0x128>)
 800152a:	6a1b      	ldr	r3, [r3, #32]
 800152c:	4a08      	ldr	r2, [pc, #32]	@ (8001550 <spi_gpio_init+0x128>)
 800152e:	f043 4380 	orr.w	r3, r3, #1073741824	@ 0x40000000
 8001532:	6213      	str	r3, [r2, #32]
	GPIOA->AFR[0] &= ~(1U<<31);
 8001534:	4b06      	ldr	r3, [pc, #24]	@ (8001550 <spi_gpio_init+0x128>)
 8001536:	6a1b      	ldr	r3, [r3, #32]
 8001538:	4a05      	ldr	r2, [pc, #20]	@ (8001550 <spi_gpio_init+0x128>)
 800153a:	f023 4300 	bic.w	r3, r3, #2147483648	@ 0x80000000
 800153e:	6213      	str	r3, [r2, #32]


}
 8001540:	bf00      	nop
 8001542:	46bd      	mov	sp, r7
 8001544:	f85d 7b04 	ldr.w	r7, [sp], #4
 8001548:	4770      	bx	lr
 800154a:	bf00      	nop
 800154c:	40023800 	.word	0x40023800
 8001550:	40020000 	.word	0x40020000

08001554 <spi1_config>:

void spi1_config(void)
{
 8001554:	b480      	push	{r7}
 8001556:	af00      	add	r7, sp, #0
	/*Enable clock access to SPI1 module*/
	RCC->APB2ENR |= SPI1EN;
 8001558:	4b29      	ldr	r3, [pc, #164]	@ (8001600 <spi1_config+0xac>)
 800155a:	6c5b      	ldr	r3, [r3, #68]	@ 0x44
 800155c:	4a28      	ldr	r2, [pc, #160]	@ (8001600 <spi1_config+0xac>)
 800155e:	f443 5380 	orr.w	r3, r3, #4096	@ 0x1000
 8001562:	6453      	str	r3, [r2, #68]	@ 0x44

	//SPI1->CR1 &=~ (1<<6);

	/*Set clock to fPCLK/4*/
	//000=f/2 100=f/4 ...111=f/256
	if(0){SPI1->CR1 |=(1U<<3);}else{SPI1->CR1 &=~(1U<<3);}
 8001564:	4b27      	ldr	r3, [pc, #156]	@ (8001604 <spi1_config+0xb0>)
 8001566:	681b      	ldr	r3, [r3, #0]
 8001568:	4a26      	ldr	r2, [pc, #152]	@ (8001604 <spi1_config+0xb0>)
 800156a:	f023 0308 	bic.w	r3, r3, #8
 800156e:	6013      	str	r3, [r2, #0]
	if(0){SPI1->CR1 |=(1U<<4);}else{SPI1->CR1 &=~(1U<<4);}
 8001570:	4b24      	ldr	r3, [pc, #144]	@ (8001604 <spi1_config+0xb0>)
 8001572:	681b      	ldr	r3, [r3, #0]
 8001574:	4a23      	ldr	r2, [pc, #140]	@ (8001604 <spi1_config+0xb0>)
 8001576:	f023 0310 	bic.w	r3, r3, #16
 800157a:	6013      	str	r3, [r2, #0]
	if(0){SPI1->CR1 |=(1U<<5);}else{SPI1->CR1 &=~(1U<<5);}
 800157c:	4b21      	ldr	r3, [pc, #132]	@ (8001604 <spi1_config+0xb0>)
 800157e:	681b      	ldr	r3, [r3, #0]
 8001580:	4a20      	ldr	r2, [pc, #128]	@ (8001604 <spi1_config+0xb0>)
 8001582:	f023 0320 	bic.w	r3, r3, #32
 8001586:	6013      	str	r3, [r2, #0]

	/*Set CPOL to 0 and CPHA to 0*/
	if(1){SPI1->CR1 |=(1U<<0);}else{SPI1->CR1 &=~(1U<<0);}
 8001588:	4b1e      	ldr	r3, [pc, #120]	@ (8001604 <spi1_config+0xb0>)
 800158a:	681b      	ldr	r3, [r3, #0]
 800158c:	4a1d      	ldr	r2, [pc, #116]	@ (8001604 <spi1_config+0xb0>)
 800158e:	f043 0301 	orr.w	r3, r3, #1
 8001592:	6013      	str	r3, [r2, #0]
	if(1){SPI1->CR1 |=(1U<<1);}else{SPI1->CR1 &=~(1U<<1);}
 8001594:	4b1b      	ldr	r3, [pc, #108]	@ (8001604 <spi1_config+0xb0>)
 8001596:	681b      	ldr	r3, [r3, #0]
 8001598:	4a1a      	ldr	r2, [pc, #104]	@ (8001604 <spi1_config+0xb0>)
 800159a:	f043 0302 	orr.w	r3, r3, #2
 800159e:	6013      	str	r3, [r2, #0]

	/*Enable full duplex*/
	SPI1->CR1 &=~(1U<<10);
 80015a0:	4b18      	ldr	r3, [pc, #96]	@ (8001604 <spi1_config+0xb0>)
 80015a2:	681b      	ldr	r3, [r3, #0]
 80015a4:	4a17      	ldr	r2, [pc, #92]	@ (8001604 <spi1_config+0xb0>)
 80015a6:	f423 6380 	bic.w	r3, r3, #1024	@ 0x400
 80015aa:	6013      	str	r3, [r2, #0]

	/*Set MSB first*/
	SPI1->CR1 &= ~(1U<<7);
 80015ac:	4b15      	ldr	r3, [pc, #84]	@ (8001604 <spi1_config+0xb0>)
 80015ae:	681b      	ldr	r3, [r3, #0]
 80015b0:	4a14      	ldr	r2, [pc, #80]	@ (8001604 <spi1_config+0xb0>)
 80015b2:	f023 0380 	bic.w	r3, r3, #128	@ 0x80
 80015b6:	6013      	str	r3, [r2, #0]

	/*Set mode to MASTER*/
	SPI1->CR1 |= (1U<<2);
 80015b8:	4b12      	ldr	r3, [pc, #72]	@ (8001604 <spi1_config+0xb0>)
 80015ba:	681b      	ldr	r3, [r3, #0]
 80015bc:	4a11      	ldr	r2, [pc, #68]	@ (8001604 <spi1_config+0xb0>)
 80015be:	f043 0304 	orr.w	r3, r3, #4
 80015c2:	6013      	str	r3, [r2, #0]
	/*Set mode to SLAVE*/
	//SPI1->CR1 &=~ (1U<<2);

	/*Set 8 bit data mode*/
	SPI1->CR1 &= ~(1U<<11);
 80015c4:	4b0f      	ldr	r3, [pc, #60]	@ (8001604 <spi1_config+0xb0>)
 80015c6:	681b      	ldr	r3, [r3, #0]
 80015c8:	4a0e      	ldr	r2, [pc, #56]	@ (8001604 <spi1_config+0xb0>)
 80015ca:	f423 6300 	bic.w	r3, r3, #2048	@ 0x800
 80015ce:	6013      	str	r3, [r2, #0]
	/*Set 16 bit data mode*/
	//SPI1->CR1 |=  (1U<<11);

	/*Select software slave management by
	 * setting SSM=1 and SSI=1*/
	SPI1->CR1 |= (1<<8);
 80015d0:	4b0c      	ldr	r3, [pc, #48]	@ (8001604 <spi1_config+0xb0>)
 80015d2:	681b      	ldr	r3, [r3, #0]
 80015d4:	4a0b      	ldr	r2, [pc, #44]	@ (8001604 <spi1_config+0xb0>)
 80015d6:	f443 7380 	orr.w	r3, r3, #256	@ 0x100
 80015da:	6013      	str	r3, [r2, #0]
	SPI1->CR1 |= (1<<9);
 80015dc:	4b09      	ldr	r3, [pc, #36]	@ (8001604 <spi1_config+0xb0>)
 80015de:	681b      	ldr	r3, [r3, #0]
 80015e0:	4a08      	ldr	r2, [pc, #32]	@ (8001604 <spi1_config+0xb0>)
 80015e2:	f443 7300 	orr.w	r3, r3, #512	@ 0x200
 80015e6:	6013      	str	r3, [r2, #0]
	/*Enable SPI module*/
	SPI1->CR1 |= (1<<6);
 80015e8:	4b06      	ldr	r3, [pc, #24]	@ (8001604 <spi1_config+0xb0>)
 80015ea:	681b      	ldr	r3, [r3, #0]
 80015ec:	4a05      	ldr	r2, [pc, #20]	@ (8001604 <spi1_config+0xb0>)
 80015ee:	f043 0340 	orr.w	r3, r3, #64	@ 0x40
 80015f2:	6013      	str	r3, [r2, #0]
}
 80015f4:	bf00      	nop
 80015f6:	46bd      	mov	sp, r7
 80015f8:	f85d 7b04 	ldr.w	r7, [sp], #4
 80015fc:	4770      	bx	lr
 80015fe:	bf00      	nop
 8001600:	40023800 	.word	0x40023800
 8001604:	40013000 	.word	0x40013000

08001608 <spi1_transmit>:

void spi1_transmit(uint8_t *data,uint32_t size)
{
 8001608:	b480      	push	{r7}
 800160a:	b085      	sub	sp, #20
 800160c:	af00      	add	r7, sp, #0
 800160e:	6078      	str	r0, [r7, #4]
 8001610:	6039      	str	r1, [r7, #0]
	/*8 bit version for init only*/
	uint32_t i=0;
 8001612:	2300      	movs	r3, #0
 8001614:	60fb      	str	r3, [r7, #12]
	uint8_t temp;

	while(i<size)
 8001616:	e00f      	b.n	8001638 <spi1_transmit+0x30>
	{
		/*Wait until TXE is set*/
		while(!(SPI1->SR & (SR_TXE))){}
 8001618:	bf00      	nop
 800161a:	4b19      	ldr	r3, [pc, #100]	@ (8001680 <spi1_transmit+0x78>)
 800161c:	689b      	ldr	r3, [r3, #8]
 800161e:	f003 0302 	and.w	r3, r3, #2
 8001622:	2b00      	cmp	r3, #0
 8001624:	d0f9      	beq.n	800161a <spi1_transmit+0x12>

		/*Write the data to the data register*/
		SPI1->DR = data[i];
 8001626:	687a      	ldr	r2, [r7, #4]
 8001628:	68fb      	ldr	r3, [r7, #12]
 800162a:	4413      	add	r3, r2
 800162c:	781a      	ldrb	r2, [r3, #0]
 800162e:	4b14      	ldr	r3, [pc, #80]	@ (8001680 <spi1_transmit+0x78>)
 8001630:	60da      	str	r2, [r3, #12]
		i++;
 8001632:	68fb      	ldr	r3, [r7, #12]
 8001634:	3301      	adds	r3, #1
 8001636:	60fb      	str	r3, [r7, #12]
	while(i<size)
 8001638:	68fa      	ldr	r2, [r7, #12]
 800163a:	683b      	ldr	r3, [r7, #0]
 800163c:	429a      	cmp	r2, r3
 800163e:	d3eb      	bcc.n	8001618 <spi1_transmit+0x10>
	}
	/*Wait until TXE is set*/
	while(!(SPI1->SR & (SR_TXE))){}
 8001640:	bf00      	nop
 8001642:	4b0f      	ldr	r3, [pc, #60]	@ (8001680 <spi1_transmit+0x78>)
 8001644:	689b      	ldr	r3, [r3, #8]
 8001646:	f003 0302 	and.w	r3, r3, #2
 800164a:	2b00      	cmp	r3, #0
 800164c:	d0f9      	beq.n	8001642 <spi1_transmit+0x3a>

	/*Wait for BUSY flag to reset*/
	while((SPI1->SR & (SR_BSY))){}
 800164e:	bf00      	nop
 8001650:	4b0b      	ldr	r3, [pc, #44]	@ (8001680 <spi1_transmit+0x78>)
 8001652:	689b      	ldr	r3, [r3, #8]
 8001654:	f003 0380 	and.w	r3, r3, #128	@ 0x80
 8001658:	2b00      	cmp	r3, #0
 800165a:	d1f9      	bne.n	8001650 <spi1_transmit+0x48>

	/*Clear OVR flag*/
	temp = SPI1->DR;
 800165c:	4b08      	ldr	r3, [pc, #32]	@ (8001680 <spi1_transmit+0x78>)
 800165e:	68db      	ldr	r3, [r3, #12]
 8001660:	72fb      	strb	r3, [r7, #11]
	temp = SPI1->SR;
 8001662:	4b07      	ldr	r3, [pc, #28]	@ (8001680 <spi1_transmit+0x78>)
 8001664:	689b      	ldr	r3, [r3, #8]
 8001666:	72fb      	strb	r3, [r7, #11]
	/*use temp variable to clear warning list*/
	if(temp!=0) temp=0;
 8001668:	7afb      	ldrb	r3, [r7, #11]
 800166a:	2b00      	cmp	r3, #0
 800166c:	d001      	beq.n	8001672 <spi1_transmit+0x6a>
 800166e:	2300      	movs	r3, #0
 8001670:	72fb      	strb	r3, [r7, #11]
}
 8001672:	bf00      	nop
 8001674:	3714      	adds	r7, #20
 8001676:	46bd      	mov	sp, r7
 8001678:	f85d 7b04 	ldr.w	r7, [sp], #4
 800167c:	4770      	bx	lr
 800167e:	bf00      	nop
 8001680:	40013000 	.word	0x40013000

08001684 <spi1_transmit16>:

void spi1_transmit16(uint16_t *data,uint32_t size)
	{
 8001684:	b480      	push	{r7}
 8001686:	b085      	sub	sp, #20
 8001688:	af00      	add	r7, sp, #0
 800168a:	6078      	str	r0, [r7, #4]
 800168c:	6039      	str	r1, [r7, #0]
		/*16 bit version*/
		uint32_t i=0;
 800168e:	2300      	movs	r3, #0
 8001690:	60fb      	str	r3, [r7, #12]

		uint8_t temp;

		while(i<size)
 8001692:	e010      	b.n	80016b6 <spi1_transmit16+0x32>
		{
			/*Wait until TXE is set*/
			while(!(SPI1->SR & (SR_TXE))){}
 8001694:	bf00      	nop
 8001696:	4b19      	ldr	r3, [pc, #100]	@ (80016fc <spi1_transmit16+0x78>)
 8001698:	689b      	ldr	r3, [r3, #8]
 800169a:	f003 0302 	and.w	r3, r3, #2
 800169e:	2b00      	cmp	r3, #0
 80016a0:	d0f9      	beq.n	8001696 <spi1_transmit16+0x12>

			/*Write the data to the data register*/
			SPI1->DR = data[i];
 80016a2:	68fb      	ldr	r3, [r7, #12]
 80016a4:	005b      	lsls	r3, r3, #1
 80016a6:	687a      	ldr	r2, [r7, #4]
 80016a8:	4413      	add	r3, r2
 80016aa:	881a      	ldrh	r2, [r3, #0]
 80016ac:	4b13      	ldr	r3, [pc, #76]	@ (80016fc <spi1_transmit16+0x78>)
 80016ae:	60da      	str	r2, [r3, #12]
			i++;
 80016b0:	68fb      	ldr	r3, [r7, #12]
 80016b2:	3301      	adds	r3, #1
 80016b4:	60fb      	str	r3, [r7, #12]
		while(i<size)
 80016b6:	68fa      	ldr	r2, [r7, #12]
 80016b8:	683b      	ldr	r3, [r7, #0]
 80016ba:	429a      	cmp	r2, r3
 80016bc:	d3ea      	bcc.n	8001694 <spi1_transmit16+0x10>
		}
		/*Wait until TXE is set*/
		while(!(SPI1->SR & (SR_TXE))){}
 80016be:	bf00      	nop
 80016c0:	4b0e      	ldr	r3, [pc, #56]	@ (80016fc <spi1_transmit16+0x78>)
 80016c2:	689b      	ldr	r3, [r3, #8]
 80016c4:	f003 0302 	and.w	r3, r3, #2
 80016c8:	2b00      	cmp	r3, #0
 80016ca:	d0f9      	beq.n	80016c0 <spi1_transmit16+0x3c>

		/*Wait for BUSY flag to reset*/
		while((SPI1->SR & (SR_BSY))){}
 80016cc:	bf00      	nop
 80016ce:	4b0b      	ldr	r3, [pc, #44]	@ (80016fc <spi1_transmit16+0x78>)
 80016d0:	689b      	ldr	r3, [r3, #8]
 80016d2:	f003 0380 	and.w	r3, r3, #128	@ 0x80
 80016d6:	2b00      	cmp	r3, #0
 80016d8:	d1f9      	bne.n	80016ce <spi1_transmit16+0x4a>

		/*Clear OVR flag*/
		temp = SPI1->DR;
 80016da:	4b08      	ldr	r3, [pc, #32]	@ (80016fc <spi1_transmit16+0x78>)
 80016dc:	68db      	ldr	r3, [r3, #12]
 80016de:	72fb      	strb	r3, [r7, #11]
		temp = SPI1->SR;
 80016e0:	4b06      	ldr	r3, [pc, #24]	@ (80016fc <spi1_transmit16+0x78>)
 80016e2:	689b      	ldr	r3, [r3, #8]
 80016e4:	72fb      	strb	r3, [r7, #11]
		/*use temp variable to clear warning list*/
		if(temp!=0) temp=0;
 80016e6:	7afb      	ldrb	r3, [r7, #11]
 80016e8:	2b00      	cmp	r3, #0
 80016ea:	d001      	beq.n	80016f0 <spi1_transmit16+0x6c>
 80016ec:	2300      	movs	r3, #0
 80016ee:	72fb      	strb	r3, [r7, #11]
	}
 80016f0:	bf00      	nop
 80016f2:	3714      	adds	r7, #20
 80016f4:	46bd      	mov	sp, r7
 80016f6:	f85d 7b04 	ldr.w	r7, [sp], #4
 80016fa:	4770      	bx	lr
 80016fc:	40013000 	.word	0x40013000

08001700 <spi1_DMA_enable>:
		*data++ = (SPI1->DR);
		size--;
	}
}

void spi1_DMA_enable(void){
 8001700:	b480      	push	{r7}
 8001702:	af00      	add	r7, sp, #0
	SPI1->CR1 |= (1U << 6);
 8001704:	4b08      	ldr	r3, [pc, #32]	@ (8001728 <spi1_DMA_enable+0x28>)
 8001706:	681b      	ldr	r3, [r3, #0]
 8001708:	4a07      	ldr	r2, [pc, #28]	@ (8001728 <spi1_DMA_enable+0x28>)
 800170a:	f043 0340 	orr.w	r3, r3, #64	@ 0x40
 800170e:	6013      	str	r3, [r2, #0]
	SPI1->CR2 |= (1U<<1);
 8001710:	4b05      	ldr	r3, [pc, #20]	@ (8001728 <spi1_DMA_enable+0x28>)
 8001712:	685b      	ldr	r3, [r3, #4]
 8001714:	4a04      	ldr	r2, [pc, #16]	@ (8001728 <spi1_DMA_enable+0x28>)
 8001716:	f043 0302 	orr.w	r3, r3, #2
 800171a:	6053      	str	r3, [r2, #4]
}
 800171c:	bf00      	nop
 800171e:	46bd      	mov	sp, r7
 8001720:	f85d 7b04 	ldr.w	r7, [sp], #4
 8001724:	4770      	bx	lr
 8001726:	bf00      	nop
 8001728:	40013000 	.word	0x40013000

0800172c <spi1_set16>:
void spi1_set16(void){
 800172c:	b480      	push	{r7}
 800172e:	af00      	add	r7, sp, #0
/*Set 16 bit data mode*/
SPI1->CR1 |=  (1U<<11);
 8001730:	4b05      	ldr	r3, [pc, #20]	@ (8001748 <spi1_set16+0x1c>)
 8001732:	681b      	ldr	r3, [r3, #0]
 8001734:	4a04      	ldr	r2, [pc, #16]	@ (8001748 <spi1_set16+0x1c>)
 8001736:	f443 6300 	orr.w	r3, r3, #2048	@ 0x800
 800173a:	6013      	str	r3, [r2, #0]
}
 800173c:	bf00      	nop
 800173e:	46bd      	mov	sp, r7
 8001740:	f85d 7b04 	ldr.w	r7, [sp], #4
 8001744:	4770      	bx	lr
 8001746:	bf00      	nop
 8001748:	40013000 	.word	0x40013000

0800174c <spi1_set8>:

void spi1_set8(void){
 800174c:	b480      	push	{r7}
 800174e:	af00      	add	r7, sp, #0
/*Set 16 bit data mode*/
SPI1->CR1 &=~  (1U<<11);
 8001750:	4b05      	ldr	r3, [pc, #20]	@ (8001768 <spi1_set8+0x1c>)
 8001752:	681b      	ldr	r3, [r3, #0]
 8001754:	4a04      	ldr	r2, [pc, #16]	@ (8001768 <spi1_set8+0x1c>)
 8001756:	f423 6300 	bic.w	r3, r3, #2048	@ 0x800
 800175a:	6013      	str	r3, [r2, #0]
}
 800175c:	bf00      	nop
 800175e:	46bd      	mov	sp, r7
 8001760:	f85d 7b04 	ldr.w	r7, [sp], #4
 8001764:	4770      	bx	lr
 8001766:	bf00      	nop
 8001768:	40013000 	.word	0x40013000

0800176c <spi_dma_init>:
#define DMA_CR_CHSEL7		(7U<<25)
#define DMA_CR_CHSEL3		(3U<<25)



void spi_dma_init(uint16_t *buffer){
 800176c:	b580      	push	{r7, lr}
 800176e:	b082      	sub	sp, #8
 8001770:	af00      	add	r7, sp, #0
 8001772:	6078      	str	r0, [r7, #4]

	/*Enable clock access to DMA*/
	RCC->AHB1ENR |=DMA2EN;
 8001774:	4b3c      	ldr	r3, [pc, #240]	@ (8001868 <spi_dma_init+0xfc>)
 8001776:	6b1b      	ldr	r3, [r3, #48]	@ 0x30
 8001778:	4a3b      	ldr	r2, [pc, #236]	@ (8001868 <spi_dma_init+0xfc>)
 800177a:	f443 0380 	orr.w	r3, r3, #4194304	@ 0x400000
 800177e:	6313      	str	r3, [r2, #48]	@ 0x30

	spi1_DMA_enable();
 8001780:	f7ff ffbe 	bl	8001700 <spi1_DMA_enable>

	/*Disable DMA stream*/
	DMA2_Stream3->CR &=~DMA_SCR_EN; /*stream3 wegen tabelle 28 RM0383 171/842*/
 8001784:	4b39      	ldr	r3, [pc, #228]	@ (800186c <spi_dma_init+0x100>)
 8001786:	681b      	ldr	r3, [r3, #0]
 8001788:	4a38      	ldr	r2, [pc, #224]	@ (800186c <spi_dma_init+0x100>)
 800178a:	f023 0301 	bic.w	r3, r3, #1
 800178e:	6013      	str	r3, [r2, #0]

	/*wait till DMA is disabled*/
	while((DMA2_Stream3->CR & DMA_SCR_EN)){}
 8001790:	bf00      	nop
 8001792:	4b36      	ldr	r3, [pc, #216]	@ (800186c <spi_dma_init+0x100>)
 8001794:	681b      	ldr	r3, [r3, #0]
 8001796:	f003 0301 	and.w	r3, r3, #1
 800179a:	2b00      	cmp	r3, #0
 800179c:	d1f9      	bne.n	8001792 <spi_dma_init+0x26>

	/*Disable Circular mode*/
	DMA2_Stream3->CR &=~DMA_SCR_CIRC;
 800179e:	4b33      	ldr	r3, [pc, #204]	@ (800186c <spi_dma_init+0x100>)
 80017a0:	681b      	ldr	r3, [r3, #0]
 80017a2:	4a32      	ldr	r2, [pc, #200]	@ (800186c <spi_dma_init+0x100>)
 80017a4:	f423 7380 	bic.w	r3, r3, #256	@ 0x100
 80017a8:	6013      	str	r3, [r2, #0]
	//DMA2_Stream3->CR |= DMA_SCR_CIRC;

	/*Set MSIZE i.e Memory data size to half-word (= 16bit)*/

	DMA2_Stream3->CR |= (1U<<13);
 80017aa:	4b30      	ldr	r3, [pc, #192]	@ (800186c <spi_dma_init+0x100>)
 80017ac:	681b      	ldr	r3, [r3, #0]
 80017ae:	4a2f      	ldr	r2, [pc, #188]	@ (800186c <spi_dma_init+0x100>)
 80017b0:	f443 5300 	orr.w	r3, r3, #8192	@ 0x2000
 80017b4:	6013      	str	r3, [r2, #0]
	DMA2_Stream3->CR &= ~(1U<<14);
 80017b6:	4b2d      	ldr	r3, [pc, #180]	@ (800186c <spi_dma_init+0x100>)
 80017b8:	681b      	ldr	r3, [r3, #0]
 80017ba:	4a2c      	ldr	r2, [pc, #176]	@ (800186c <spi_dma_init+0x100>)
 80017bc:	f423 4380 	bic.w	r3, r3, #16384	@ 0x4000
 80017c0:	6013      	str	r3, [r2, #0]

	/*Set PSIZE i.e Peripheral data size to half-word*/
	DMA2_Stream3->CR |= (1U<<11);
 80017c2:	4b2a      	ldr	r3, [pc, #168]	@ (800186c <spi_dma_init+0x100>)
 80017c4:	681b      	ldr	r3, [r3, #0]
 80017c6:	4a29      	ldr	r2, [pc, #164]	@ (800186c <spi_dma_init+0x100>)
 80017c8:	f443 6300 	orr.w	r3, r3, #2048	@ 0x800
 80017cc:	6013      	str	r3, [r2, #0]
	DMA2_Stream3->CR &= ~(1U<<12);
 80017ce:	4b27      	ldr	r3, [pc, #156]	@ (800186c <spi_dma_init+0x100>)
 80017d0:	681b      	ldr	r3, [r3, #0]
 80017d2:	4a26      	ldr	r2, [pc, #152]	@ (800186c <spi_dma_init+0x100>)
 80017d4:	f423 5380 	bic.w	r3, r3, #4096	@ 0x1000
 80017d8:	6013      	str	r3, [r2, #0]

	/*set Data transfer direction*/
	DMA2_Stream3->CR |= DMA_CR_DIR1;
 80017da:	4b24      	ldr	r3, [pc, #144]	@ (800186c <spi_dma_init+0x100>)
 80017dc:	681b      	ldr	r3, [r3, #0]
 80017de:	4a23      	ldr	r2, [pc, #140]	@ (800186c <spi_dma_init+0x100>)
 80017e0:	f043 0340 	orr.w	r3, r3, #64	@ 0x40
 80017e4:	6013      	str	r3, [r2, #0]
	DMA2_Stream3->CR &=~ DMA_CR_DIR2;
 80017e6:	4b21      	ldr	r3, [pc, #132]	@ (800186c <spi_dma_init+0x100>)
 80017e8:	681b      	ldr	r3, [r3, #0]
 80017ea:	4a20      	ldr	r2, [pc, #128]	@ (800186c <spi_dma_init+0x100>)
 80017ec:	f023 0380 	bic.w	r3, r3, #128	@ 0x80
 80017f0:	6013      	str	r3, [r2, #0]

	/*Enable memory addr increment*/
	DMA2_Stream3->CR |=DMA_SCR_MINC;
 80017f2:	4b1e      	ldr	r3, [pc, #120]	@ (800186c <spi_dma_init+0x100>)
 80017f4:	681b      	ldr	r3, [r3, #0]
 80017f6:	4a1d      	ldr	r2, [pc, #116]	@ (800186c <spi_dma_init+0x100>)
 80017f8:	f443 6380 	orr.w	r3, r3, #1024	@ 0x400
 80017fc:	6013      	str	r3, [r2, #0]
	//DMA2_Stream3->CR &=~DMA_SCR_MINC;

	/*Set periph address*/
	DMA2_Stream3->PAR = (uint32_t)(&(SPI1->DR)); // SPI data register
 80017fe:	4b1b      	ldr	r3, [pc, #108]	@ (800186c <spi_dma_init+0x100>)
 8001800:	4a1b      	ldr	r2, [pc, #108]	@ (8001870 <spi_dma_init+0x104>)
 8001802:	609a      	str	r2, [r3, #8]

	/*Set mem address*/
	DMA2_Stream3->M0AR = (uint32_t)(buffer); //pointer to buffer, i.e. linebuffer
 8001804:	4a19      	ldr	r2, [pc, #100]	@ (800186c <spi_dma_init+0x100>)
 8001806:	687b      	ldr	r3, [r7, #4]
 8001808:	60d3      	str	r3, [r2, #12]


	/*chanel selection*/
	DMA2_Stream3->CR &=~ DMA_CR_CHSEL7; //all bits to 0
 800180a:	4b18      	ldr	r3, [pc, #96]	@ (800186c <spi_dma_init+0x100>)
 800180c:	681b      	ldr	r3, [r3, #0]
 800180e:	4a17      	ldr	r2, [pc, #92]	@ (800186c <spi_dma_init+0x100>)
 8001810:	f023 6360 	bic.w	r3, r3, #234881024	@ 0xe000000
 8001814:	6013      	str	r3, [r2, #0]
	DMA2_Stream3->CR |= DMA_CR_CHSEL3; // bit 25,26 to 1 for chanel3
 8001816:	4b15      	ldr	r3, [pc, #84]	@ (800186c <spi_dma_init+0x100>)
 8001818:	681b      	ldr	r3, [r3, #0]
 800181a:	4a14      	ldr	r2, [pc, #80]	@ (800186c <spi_dma_init+0x100>)
 800181c:	f043 63c0 	orr.w	r3, r3, #100663296	@ 0x6000000
 8001820:	6013      	str	r3, [r2, #0]

	/*clear all transfer complete */
	DMA2->LIFCR |= (1U<<24);
 8001822:	4b14      	ldr	r3, [pc, #80]	@ (8001874 <spi_dma_init+0x108>)
 8001824:	689b      	ldr	r3, [r3, #8]
 8001826:	4a13      	ldr	r2, [pc, #76]	@ (8001874 <spi_dma_init+0x108>)
 8001828:	f043 7380 	orr.w	r3, r3, #16777216	@ 0x1000000
 800182c:	6093      	str	r3, [r2, #8]
	DMA2->LIFCR |= (1U<<25);
 800182e:	4b11      	ldr	r3, [pc, #68]	@ (8001874 <spi_dma_init+0x108>)
 8001830:	689b      	ldr	r3, [r3, #8]
 8001832:	4a10      	ldr	r2, [pc, #64]	@ (8001874 <spi_dma_init+0x108>)
 8001834:	f043 7300 	orr.w	r3, r3, #33554432	@ 0x2000000
 8001838:	6093      	str	r3, [r2, #8]
	DMA2->LIFCR |= (1U<<26);
 800183a:	4b0e      	ldr	r3, [pc, #56]	@ (8001874 <spi_dma_init+0x108>)
 800183c:	689b      	ldr	r3, [r3, #8]
 800183e:	4a0d      	ldr	r2, [pc, #52]	@ (8001874 <spi_dma_init+0x108>)
 8001840:	f043 6380 	orr.w	r3, r3, #67108864	@ 0x4000000
 8001844:	6093      	str	r3, [r2, #8]
	DMA2->LIFCR |= (1U<<27);
 8001846:	4b0b      	ldr	r3, [pc, #44]	@ (8001874 <spi_dma_init+0x108>)
 8001848:	689b      	ldr	r3, [r3, #8]
 800184a:	4a0a      	ldr	r2, [pc, #40]	@ (8001874 <spi_dma_init+0x108>)
 800184c:	f043 6300 	orr.w	r3, r3, #134217728	@ 0x8000000
 8001850:	6093      	str	r3, [r2, #8]

    /*Enable DMA stream*/
	DMA2_Stream3->CR |= DMA_SCR_EN;
 8001852:	4b06      	ldr	r3, [pc, #24]	@ (800186c <spi_dma_init+0x100>)
 8001854:	681b      	ldr	r3, [r3, #0]
 8001856:	4a05      	ldr	r2, [pc, #20]	@ (800186c <spi_dma_init+0x100>)
 8001858:	f043 0301 	orr.w	r3, r3, #1
 800185c:	6013      	str	r3, [r2, #0]


}
 800185e:	bf00      	nop
 8001860:	3708      	adds	r7, #8
 8001862:	46bd      	mov	sp, r7
 8001864:	bd80      	pop	{r7, pc}
 8001866:	bf00      	nop
 8001868:	40023800 	.word	0x40023800
 800186c:	40026458 	.word	0x40026458
 8001870:	4001300c 	.word	0x4001300c
 8001874:	40026400 	.word	0x40026400

08001878 <spi1_transmit_DMA>:

void spi1_transmit_DMA(uint32_t size)
	{
 8001878:	b480      	push	{r7}
 800187a:	b083      	sub	sp, #12
 800187c:	af00      	add	r7, sp, #0
 800187e:	6078      	str	r0, [r7, #4]
		if(size==0) return;
 8001880:	687b      	ldr	r3, [r7, #4]
 8001882:	2b00      	cmp	r3, #0
 8001884:	d036      	beq.n	80018f4 <spi1_transmit_DMA+0x7c>
		/* Disable stream */
	    DMA2_Stream3->CR &= ~DMA_SCR_EN;
 8001886:	4b1e      	ldr	r3, [pc, #120]	@ (8001900 <spi1_transmit_DMA+0x88>)
 8001888:	681b      	ldr	r3, [r3, #0]
 800188a:	4a1d      	ldr	r2, [pc, #116]	@ (8001900 <spi1_transmit_DMA+0x88>)
 800188c:	f023 0301 	bic.w	r3, r3, #1
 8001890:	6013      	str	r3, [r2, #0]
	    while (DMA2_Stream3->CR & DMA_SCR_EN){};
 8001892:	bf00      	nop
 8001894:	4b1a      	ldr	r3, [pc, #104]	@ (8001900 <spi1_transmit_DMA+0x88>)
 8001896:	681b      	ldr	r3, [r3, #0]
 8001898:	f003 0301 	and.w	r3, r3, #1
 800189c:	2b00      	cmp	r3, #0
 800189e:	d1f9      	bne.n	8001894 <spi1_transmit_DMA+0x1c>
	    /* Clear all relevant flags */
		DMA2->LIFCR |= (1U<<24);
 80018a0:	4b18      	ldr	r3, [pc, #96]	@ (8001904 <spi1_transmit_DMA+0x8c>)
 80018a2:	689b      	ldr	r3, [r3, #8]
 80018a4:	4a17      	ldr	r2, [pc, #92]	@ (8001904 <spi1_transmit_DMA+0x8c>)
 80018a6:	f043 7380 	orr.w	r3, r3, #16777216	@ 0x1000000
 80018aa:	6093      	str	r3, [r2, #8]
		DMA2->LIFCR |= (1U<<25);
 80018ac:	4b15      	ldr	r3, [pc, #84]	@ (8001904 <spi1_transmit_DMA+0x8c>)
 80018ae:	689b      	ldr	r3, [r3, #8]
 80018b0:	4a14      	ldr	r2, [pc, #80]	@ (8001904 <spi1_transmit_DMA+0x8c>)
 80018b2:	f043 7300 	orr.w	r3, r3, #33554432	@ 0x2000000
 80018b6:	6093      	str	r3, [r2, #8]
		DMA2->LIFCR |= (1U<<26);
 80018b8:	4b12      	ldr	r3, [pc, #72]	@ (8001904 <spi1_transmit_DMA+0x8c>)
 80018ba:	689b      	ldr	r3, [r3, #8]
 80018bc:	4a11      	ldr	r2, [pc, #68]	@ (8001904 <spi1_transmit_DMA+0x8c>)
 80018be:	f043 6380 	orr.w	r3, r3, #67108864	@ 0x4000000
 80018c2:	6093      	str	r3, [r2, #8]
		DMA2->LIFCR |= (1U<<27);
 80018c4:	4b0f      	ldr	r3, [pc, #60]	@ (8001904 <spi1_transmit_DMA+0x8c>)
 80018c6:	689b      	ldr	r3, [r3, #8]
 80018c8:	4a0e      	ldr	r2, [pc, #56]	@ (8001904 <spi1_transmit_DMA+0x8c>)
 80018ca:	f043 6300 	orr.w	r3, r3, #134217728	@ 0x8000000
 80018ce:	6093      	str	r3, [r2, #8]
	    /* Set number of data items */
	    DMA2_Stream3->NDTR = size;
 80018d0:	4a0b      	ldr	r2, [pc, #44]	@ (8001900 <spi1_transmit_DMA+0x88>)
 80018d2:	687b      	ldr	r3, [r7, #4]
 80018d4:	6053      	str	r3, [r2, #4]
	    /* Enable stream */
	    DMA2_Stream3->CR |= DMA_SCR_EN;
 80018d6:	4b0a      	ldr	r3, [pc, #40]	@ (8001900 <spi1_transmit_DMA+0x88>)
 80018d8:	681b      	ldr	r3, [r3, #0]
 80018da:	4a09      	ldr	r2, [pc, #36]	@ (8001900 <spi1_transmit_DMA+0x88>)
 80018dc:	f043 0301 	orr.w	r3, r3, #1
 80018e0:	6013      	str	r3, [r2, #0]
	    //while(!(DMA2->LISR & (1U<<27))){}
	    while(DMA2_Stream3->CR & DMA_SCR_EN == 1){
 80018e2:	e000      	b.n	80018e6 <spi1_transmit_DMA+0x6e>
	    __WFI(); //wait for interupt, if not right interrupt wait again
 80018e4:	bf30      	wfi
	    while(DMA2_Stream3->CR & DMA_SCR_EN == 1){
 80018e6:	4b06      	ldr	r3, [pc, #24]	@ (8001900 <spi1_transmit_DMA+0x88>)
 80018e8:	681b      	ldr	r3, [r3, #0]
 80018ea:	f003 0301 	and.w	r3, r3, #1
 80018ee:	2b00      	cmp	r3, #0
 80018f0:	d1f8      	bne.n	80018e4 <spi1_transmit_DMA+0x6c>
 80018f2:	e000      	b.n	80018f6 <spi1_transmit_DMA+0x7e>
		if(size==0) return;
 80018f4:	bf00      	nop
	    }
	}
 80018f6:	370c      	adds	r7, #12
 80018f8:	46bd      	mov	sp, r7
 80018fa:	f85d 7b04 	ldr.w	r7, [sp], #4
 80018fe:	4770      	bx	lr
 8001900:	40026458 	.word	0x40026458
 8001904:	40026400 	.word	0x40026400

08001908 <spi_dma_setSingleColorStatus>:

void spi_dma_setSingleColorStatus(bool on){
 8001908:	b480      	push	{r7}
 800190a:	b083      	sub	sp, #12
 800190c:	af00      	add	r7, sp, #0
 800190e:	4603      	mov	r3, r0
 8001910:	71fb      	strb	r3, [r7, #7]
	 /* Disable stream */
	DMA2_Stream3->CR &= ~DMA_SCR_EN;
 8001912:	4b11      	ldr	r3, [pc, #68]	@ (8001958 <spi_dma_setSingleColorStatus+0x50>)
 8001914:	681b      	ldr	r3, [r3, #0]
 8001916:	4a10      	ldr	r2, [pc, #64]	@ (8001958 <spi_dma_setSingleColorStatus+0x50>)
 8001918:	f023 0301 	bic.w	r3, r3, #1
 800191c:	6013      	str	r3, [r2, #0]
	while (DMA2_Stream3->CR & DMA_SCR_EN){};
 800191e:	bf00      	nop
 8001920:	4b0d      	ldr	r3, [pc, #52]	@ (8001958 <spi_dma_setSingleColorStatus+0x50>)
 8001922:	681b      	ldr	r3, [r3, #0]
 8001924:	f003 0301 	and.w	r3, r3, #1
 8001928:	2b00      	cmp	r3, #0
 800192a:	d1f9      	bne.n	8001920 <spi_dma_setSingleColorStatus+0x18>
	/*Disable memory addr increment*/
	if(on)	DMA2_Stream3->CR &=~DMA_SCR_MINC;
 800192c:	79fb      	ldrb	r3, [r7, #7]
 800192e:	2b00      	cmp	r3, #0
 8001930:	d006      	beq.n	8001940 <spi_dma_setSingleColorStatus+0x38>
 8001932:	4b09      	ldr	r3, [pc, #36]	@ (8001958 <spi_dma_setSingleColorStatus+0x50>)
 8001934:	681b      	ldr	r3, [r3, #0]
 8001936:	4a08      	ldr	r2, [pc, #32]	@ (8001958 <spi_dma_setSingleColorStatus+0x50>)
 8001938:	f423 6380 	bic.w	r3, r3, #1024	@ 0x400
 800193c:	6013      	str	r3, [r2, #0]
	else DMA2_Stream3->CR |=DMA_SCR_MINC;
}
 800193e:	e005      	b.n	800194c <spi_dma_setSingleColorStatus+0x44>
	else DMA2_Stream3->CR |=DMA_SCR_MINC;
 8001940:	4b05      	ldr	r3, [pc, #20]	@ (8001958 <spi_dma_setSingleColorStatus+0x50>)
 8001942:	681b      	ldr	r3, [r3, #0]
 8001944:	4a04      	ldr	r2, [pc, #16]	@ (8001958 <spi_dma_setSingleColorStatus+0x50>)
 8001946:	f443 6380 	orr.w	r3, r3, #1024	@ 0x400
 800194a:	6013      	str	r3, [r2, #0]
}
 800194c:	bf00      	nop
 800194e:	370c      	adds	r7, #12
 8001950:	46bd      	mov	sp, r7
 8001952:	f85d 7b04 	ldr.w	r7, [sp], #4
 8001956:	4770      	bx	lr
 8001958:	40026458 	.word	0x40026458

0800195c <systick_msec_delay>:
#define ONE_MSEC_LOAD	16000

volatile uint32_t systick_ms = 0;

void systick_msec_delay(uint32_t delay)
{
 800195c:	b480      	push	{r7}
 800195e:	b085      	sub	sp, #20
 8001960:	af00      	add	r7, sp, #0
 8001962:	6078      	str	r0, [r7, #4]
//Polling delay, uses a lot of power. Better use systick_msec_sleep() instead
//TODO: remove this function
    /*Load the timer with number of clock cycles per millisecond*/
	SysTick->LOAD =  ONE_MSEC_LOAD - 1;
 8001964:	4b14      	ldr	r3, [pc, #80]	@ (80019b8 <systick_msec_delay+0x5c>)
 8001966:	f643 627f 	movw	r2, #15999	@ 0x3e7f
 800196a:	605a      	str	r2, [r3, #4]

    /*Clear systick current value register*/
	SysTick->VAL = 0;
 800196c:	4b12      	ldr	r3, [pc, #72]	@ (80019b8 <systick_msec_delay+0x5c>)
 800196e:	2200      	movs	r2, #0
 8001970:	609a      	str	r2, [r3, #8]

    /*Select internal clock source*/
	SysTick->CTRL = CTRL_CLCKSRC;
 8001972:	4b11      	ldr	r3, [pc, #68]	@ (80019b8 <systick_msec_delay+0x5c>)
 8001974:	2204      	movs	r2, #4
 8001976:	601a      	str	r2, [r3, #0]

	/*Enable systick*/
	SysTick->CTRL |=CTRL_ENABLE;
 8001978:	4b0f      	ldr	r3, [pc, #60]	@ (80019b8 <systick_msec_delay+0x5c>)
 800197a:	681b      	ldr	r3, [r3, #0]
 800197c:	4a0e      	ldr	r2, [pc, #56]	@ (80019b8 <systick_msec_delay+0x5c>)
 800197e:	f043 0301 	orr.w	r3, r3, #1
 8001982:	6013      	str	r3, [r2, #0]

 	for(int i = 0; i < delay; i++)
 8001984:	2300      	movs	r3, #0
 8001986:	60fb      	str	r3, [r7, #12]
 8001988:	e009      	b.n	800199e <systick_msec_delay+0x42>
	{
		while((SysTick->CTRL & CTRL_COUNTFLAG) == 0){}
 800198a:	bf00      	nop
 800198c:	4b0a      	ldr	r3, [pc, #40]	@ (80019b8 <systick_msec_delay+0x5c>)
 800198e:	681b      	ldr	r3, [r3, #0]
 8001990:	f403 3380 	and.w	r3, r3, #65536	@ 0x10000
 8001994:	2b00      	cmp	r3, #0
 8001996:	d0f9      	beq.n	800198c <systick_msec_delay+0x30>
 	for(int i = 0; i < delay; i++)
 8001998:	68fb      	ldr	r3, [r7, #12]
 800199a:	3301      	adds	r3, #1
 800199c:	60fb      	str	r3, [r7, #12]
 800199e:	68fb      	ldr	r3, [r7, #12]
 80019a0:	687a      	ldr	r2, [r7, #4]
 80019a2:	429a      	cmp	r2, r3
 80019a4:	d8f1      	bhi.n	800198a <systick_msec_delay+0x2e>
	}

	/*Disable systick*/
	SysTick->CTRL = 0;
 80019a6:	4b04      	ldr	r3, [pc, #16]	@ (80019b8 <systick_msec_delay+0x5c>)
 80019a8:	2200      	movs	r2, #0
 80019aa:	601a      	str	r2, [r3, #0]

}
 80019ac:	bf00      	nop
 80019ae:	3714      	adds	r7, #20
 80019b0:	46bd      	mov	sp, r7
 80019b2:	f85d 7b04 	ldr.w	r7, [sp], #4
 80019b6:	4770      	bx	lr
 80019b8:	e000e010 	.word	0xe000e010

080019bc <systick_msec_sleep>:
			/*Enable systick*/
			SysTick->CTRL |=CTRL_ENABLE;

}

void systick_msec_sleep(uint32_t time){
 80019bc:	b480      	push	{r7}
 80019be:	b083      	sub	sp, #12
 80019c0:	af00      	add	r7, sp, #0
 80019c2:	6078      	str	r0, [r7, #4]
	/*Load the timer with number of clock cycles per millisecond*/
			SysTick->LOAD =  (ONE_MSEC_LOAD - 1);
 80019c4:	4b11      	ldr	r3, [pc, #68]	@ (8001a0c <systick_msec_sleep+0x50>)
 80019c6:	f643 627f 	movw	r2, #15999	@ 0x3e7f
 80019ca:	605a      	str	r2, [r3, #4]

			/*Clear systick current value register*/
			//SysTick->VAL = 0;

		    /*Select internal clock source*/
			SysTick->CTRL = CTRL_CLCKSRC;
 80019cc:	4b0f      	ldr	r3, [pc, #60]	@ (8001a0c <systick_msec_sleep+0x50>)
 80019ce:	2204      	movs	r2, #4
 80019d0:	601a      	str	r2, [r3, #0]

			/*activate Iterrupts*/
			SysTick->CTRL |= CTRL_TICKINT;
 80019d2:	4b0e      	ldr	r3, [pc, #56]	@ (8001a0c <systick_msec_sleep+0x50>)
 80019d4:	681b      	ldr	r3, [r3, #0]
 80019d6:	4a0d      	ldr	r2, [pc, #52]	@ (8001a0c <systick_msec_sleep+0x50>)
 80019d8:	f043 0302 	orr.w	r3, r3, #2
 80019dc:	6013      	str	r3, [r2, #0]

			/*Enable systick*/
			SysTick->CTRL |=CTRL_ENABLE;
 80019de:	4b0b      	ldr	r3, [pc, #44]	@ (8001a0c <systick_msec_sleep+0x50>)
 80019e0:	681b      	ldr	r3, [r3, #0]
 80019e2:	4a0a      	ldr	r2, [pc, #40]	@ (8001a0c <systick_msec_sleep+0x50>)
 80019e4:	f043 0301 	orr.w	r3, r3, #1
 80019e8:	6013      	str	r3, [r2, #0]

		/*reset systick_ms*/
		systick_ms = 0;
 80019ea:	4b09      	ldr	r3, [pc, #36]	@ (8001a10 <systick_msec_sleep+0x54>)
 80019ec:	2200      	movs	r2, #0
 80019ee:	601a      	str	r2, [r3, #0]
		/*check every 1ms if time is up*/
		while(systick_ms < time){
 80019f0:	e000      	b.n	80019f4 <systick_msec_sleep+0x38>
			__WFI();
 80019f2:	bf30      	wfi
		while(systick_ms < time){
 80019f4:	4b06      	ldr	r3, [pc, #24]	@ (8001a10 <systick_msec_sleep+0x54>)
 80019f6:	681b      	ldr	r3, [r3, #0]
 80019f8:	687a      	ldr	r2, [r7, #4]
 80019fa:	429a      	cmp	r2, r3
 80019fc:	d8f9      	bhi.n	80019f2 <systick_msec_sleep+0x36>
		}

}
 80019fe:	bf00      	nop
 8001a00:	bf00      	nop
 8001a02:	370c      	adds	r7, #12
 8001a04:	46bd      	mov	sp, r7
 8001a06:	f85d 7b04 	ldr.w	r7, [sp], #4
 8001a0a:	4770      	bx	lr
 8001a0c:	e000e010 	.word	0xe000e010
 8001a10:	20000494 	.word	0x20000494

08001a14 <SysTick_Handler>:

void SysTick_Handler(void){
 8001a14:	b480      	push	{r7}
 8001a16:	af00      	add	r7, sp, #0
	systick_ms++;
 8001a18:	4b04      	ldr	r3, [pc, #16]	@ (8001a2c <SysTick_Handler+0x18>)
 8001a1a:	681b      	ldr	r3, [r3, #0]
 8001a1c:	3301      	adds	r3, #1
 8001a1e:	4a03      	ldr	r2, [pc, #12]	@ (8001a2c <SysTick_Handler+0x18>)
 8001a20:	6013      	str	r3, [r2, #0]
}
 8001a22:	bf00      	nop
 8001a24:	46bd      	mov	sp, r7
 8001a26:	f85d 7b04 	ldr.w	r7, [sp], #4
 8001a2a:	4770      	bx	lr
 8001a2c:	20000494 	.word	0x20000494

08001a30 <Reset_Handler>:
*/

  .section .text.Reset_Handler
  .weak Reset_Handler
  .type Reset_Handler, %function
	Reset_Handler:  ldr   r0, =_estack
 8001a30:	480d      	ldr	r0, [pc, #52]	@ (8001a68 <LoopForever+0x2>)
  mov   sp, r0          /* set stack pointer */
 8001a32:	4685      	mov	sp, r0
/* Call the clock system initialization function.*/
  bl  SystemInit
 8001a34:	f3af 8000 	nop.w

/* Copy the data segment initializers from flash to SRAM */
  ldr r0, =_sdata
 8001a38:	480c      	ldr	r0, [pc, #48]	@ (8001a6c <LoopForever+0x6>)
  ldr r1, =_edata
 8001a3a:	490d      	ldr	r1, [pc, #52]	@ (8001a70 <LoopForever+0xa>)
  ldr r2, =_sidata
 8001a3c:	4a0d      	ldr	r2, [pc, #52]	@ (8001a74 <LoopForever+0xe>)
  movs r3, #0
 8001a3e:	2300      	movs	r3, #0
  b LoopCopyDataInit
 8001a40:	e002      	b.n	8001a48 <LoopCopyDataInit>

08001a42 <CopyDataInit>:

CopyDataInit:
  ldr r4, [r2, r3]
 8001a42:	58d4      	ldr	r4, [r2, r3]
  str r4, [r0, r3]
 8001a44:	50c4      	str	r4, [r0, r3]
  adds r3, r3, #4
 8001a46:	3304      	adds	r3, #4

08001a48 <LoopCopyDataInit>:

LoopCopyDataInit:
  adds r4, r0, r3
 8001a48:	18c4      	adds	r4, r0, r3
  cmp r4, r1
 8001a4a:	428c      	cmp	r4, r1
  bcc CopyDataInit
 8001a4c:	d3f9      	bcc.n	8001a42 <CopyDataInit>

/* Zero fill the bss segment. */
  ldr r2, =_sbss
 8001a4e:	4a0a      	ldr	r2, [pc, #40]	@ (8001a78 <LoopForever+0x12>)
  ldr r4, =_ebss
 8001a50:	4c0a      	ldr	r4, [pc, #40]	@ (8001a7c <LoopForever+0x16>)
  movs r3, #0
 8001a52:	2300      	movs	r3, #0
  b LoopFillZerobss
 8001a54:	e001      	b.n	8001a5a <LoopFillZerobss>

08001a56 <FillZerobss>:

FillZerobss:
  str  r3, [r2]
 8001a56:	6013      	str	r3, [r2, #0]
  adds r2, r2, #4
 8001a58:	3204      	adds	r2, #4

08001a5a <LoopFillZerobss>:

LoopFillZerobss:
  cmp r2, r4
 8001a5a:	42a2      	cmp	r2, r4
  bcc FillZerobss
 8001a5c:	d3fb      	bcc.n	8001a56 <FillZerobss>


/* Call static constructors */
  bl __libc_init_array
 8001a5e:	f000 f811 	bl	8001a84 <__libc_init_array>
/* Call the application's entry point.*/

  bl main
 8001a62:	f7fe fc11 	bl	8000288 <main>

08001a66 <LoopForever>:

LoopForever:
  b LoopForever
 8001a66:	e7fe      	b.n	8001a66 <LoopForever>
	Reset_Handler:  ldr   r0, =_estack
 8001a68:	20020000 	.word	0x20020000
  ldr r0, =_sdata
 8001a6c:	20000000 	.word	0x20000000
  ldr r1, =_edata
 8001a70:	20000034 	.word	0x20000034
  ldr r2, =_sidata
 8001a74:	08001f34 	.word	0x08001f34
  ldr r2, =_sbss
 8001a78:	20000034 	.word	0x20000034
  ldr r4, =_ebss
 8001a7c:	20000498 	.word	0x20000498

08001a80 <ADC_IRQHandler>:
 * @retval : None
*/
  .section .text.Default_Handler,"ax",%progbits
Default_Handler:
Infinite_Loop:
  b Infinite_Loop
 8001a80:	e7fe      	b.n	8001a80 <ADC_IRQHandler>
	...

08001a84 <__libc_init_array>:
 8001a84:	b570      	push	{r4, r5, r6, lr}
 8001a86:	4d0d      	ldr	r5, [pc, #52]	@ (8001abc <__libc_init_array+0x38>)
 8001a88:	4c0d      	ldr	r4, [pc, #52]	@ (8001ac0 <__libc_init_array+0x3c>)
 8001a8a:	1b64      	subs	r4, r4, r5
 8001a8c:	10a4      	asrs	r4, r4, #2
 8001a8e:	2600      	movs	r6, #0
 8001a90:	42a6      	cmp	r6, r4
 8001a92:	d109      	bne.n	8001aa8 <__libc_init_array+0x24>
 8001a94:	4d0b      	ldr	r5, [pc, #44]	@ (8001ac4 <__libc_init_array+0x40>)
 8001a96:	4c0c      	ldr	r4, [pc, #48]	@ (8001ac8 <__libc_init_array+0x44>)
 8001a98:	f000 f818 	bl	8001acc <_init>
 8001a9c:	1b64      	subs	r4, r4, r5
 8001a9e:	10a4      	asrs	r4, r4, #2
 8001aa0:	2600      	movs	r6, #0
 8001aa2:	42a6      	cmp	r6, r4
 8001aa4:	d105      	bne.n	8001ab2 <__libc_init_array+0x2e>
 8001aa6:	bd70      	pop	{r4, r5, r6, pc}
 8001aa8:	f855 3b04 	ldr.w	r3, [r5], #4
 8001aac:	4798      	blx	r3
 8001aae:	3601      	adds	r6, #1
 8001ab0:	e7ee      	b.n	8001a90 <__libc_init_array+0xc>
 8001ab2:	f855 3b04 	ldr.w	r3, [r5], #4
 8001ab6:	4798      	blx	r3
 8001ab8:	3601      	adds	r6, #1
 8001aba:	e7f2      	b.n	8001aa2 <__libc_init_array+0x1e>
 8001abc:	08001f2c 	.word	0x08001f2c
 8001ac0:	08001f2c 	.word	0x08001f2c
 8001ac4:	08001f2c 	.word	0x08001f2c
 8001ac8:	08001f30 	.word	0x08001f30

08001acc <_init>:
 8001acc:	b5f8      	push	{r3, r4, r5, r6, r7, lr}
 8001ace:	bf00      	nop
 8001ad0:	bcf8      	pop	{r3, r4, r5, r6, r7}
 8001ad2:	bc08      	pop	{r3}
 8001ad4:	469e      	mov	lr, r3
 8001ad6:	4770      	bx	lr

08001ad8 <_fini>:
 8001ad8:	b5f8      	push	{r3, r4, r5, r6, r7, lr}
 8001ada:	bf00      	nop
 8001adc:	bcf8      	pop	{r3, r4, r5, r6, r7}
 8001ade:	bc08      	pop	{r3}
 8001ae0:	469e      	mov	lr, r3
 8001ae2:	4770      	bx	lr
